(lp0
Vsucess
p1
aVsonja
p2
aVwoods
p3
aVspiders
p4
aVbazooms
p5
aVhanging
p6
aVfrancesca
p7
aVcomically
p8
aVlocalized
p9
aVdisobeying
p10
aVhennings
p11
aVcanet
p12
aVscold
p13
aVoriginality
p14
aVcaned
p15
aVrickman
p16
aVslothful
p17
aVwracked
p18
aVstipulate
p19
aVcapoeira
p20
aVrawhide
p21
aVbringing
p22
aVliaisons
p23
aVgrueling
p24
aVsommerset
p25
aVwooden
p26
aVwednesday
p27
aVbroiled
p28
aVcircuitry
p29
aVcrotch
p30
aVelgar
p31
aVstereotypical
p32
aVshows
p33
aVgavan
p34
aVundead
p35
aVsnuggles
p36
aVfrancesco
p37
aVfeasibility
p38
aVminiatures
p39
aVgorman
p40
aVwoody
p41
aVconsenting
p42
aVscraped
p43
aVinanimate
p44
aVerrors
p45
aVreopens
p46
aVcooking
p47
aVfonzie
p48
aVjoely
p49
aVdesigning
p50
aVnumeral
p51
aVsuccumb
p52
aVshocks
p53
aVchins
p54
aVcrooned
p55
aVjubilantly
p56
aVrocque
p57
aVching
p58
aVchina
p59
aVshandling
p60
aVconfronts
p61
aVwiseguy
p62
aVnatured
p63
aVexistentialist
p64
aVyugoslavians
p65
aVuplifting
p66
aVcontroversy
p67
aVcrowdpleasing
p68
aVneurologist
p69
aVspotty
p70
aVclimber
p71
aVappropriately
p72
aVcobblers
p73
aVprojection
p74
aVoutraging
p75
aVlengthen
p76
aVemerich
p77
aVunsinkable
p78
aVstern
p79
aVkethcum
p80
aVcatchy
p81
aVinsecurity
p82
aVcannibal
p83
aVsidebars
p84
aVmusic
p85
aVtherefore
p86
aVmystic
p87
aVmutinies
p88
aVmagyuver
p89
aVdeloreans
p90
aVmesmerize
p91
aVyahoo
p92
aVfaceted
p93
aVexuberantly
p94
aVeggar
p95
aVboorman
p96
aVforegrounds
p97
aVprimeval
p98
aVvoicework
p99
aVcircumstances
p100
aVreingold
p101
aVmorally
p102
aVlocked
p103
aVdaqughter
p104
aVlocker
p105
aVlocket
p106
aVsoundbite
p107
aVgershon
p108
aVtomahawk
p109
aVmatilda
p110
aVunjust
p111
aVpooper
p112
aVdishearteningly
p113
aVpinto
p114
aVabsolute
p115
aVvicent
p116
aVbeyer
p117
aVtravel
p118
aVcopious
p119
aVplayback
p120
aVdangerfield
p121
aVprostitues
p122
aVcadence
p123
aVthivisol
p124
aVsonorra
p125
aVdinosaurs
p126
aVwrong
p127
aVcerebrally
p128
aVsentencing
p129
aVdomed
p130
aVcolorfully
p131
aVglenne
p132
aVrecombination
p133
aVsubplots
p134
aVsickening
p135
aVtulip
p136
aVperpetrator
p137
aVcrackin
p138
aVnonsensical
p139
aVromper
p140
aVdisengaging
p141
aVsnugly
p142
aVwelcomed
p143
aVconcurrence
p144
aVstoicism
p145
aVwhizzing
p146
aVmatsumoto
p147
aVsidekicks
p148
aVrewarded
p149
aVwelcomes
p150
aVhypnotist
p151
aVwickedly
p152
aVmajestically
p153
aVlifeline
p154
aVscreaming
p155
aVwales
p156
aVbunker
p157
aVzucker
p158
aVsongwriter
p159
aVmunicipality
p160
aVrecollections
p161
aVguiler
p162
aVeffects
p163
aVmultidimensional
p164
aVsixteen
p165
aVundeveloped
p166
aVsaddened
p167
aVwhacking
p168
aVbartok
p169
aVbarton
p170
aVforegin
p171
aVsugarplums
p172
aVfrewer
p173
aVarrow
p174
aVingrid
p175
aVwindmill
p176
aVtelescope
p177
aVallah
p178
aVallan
p179
aVparasites
p180
aVtouts
p181
aVoprah
p182
aVsmirk
p183
aVscrumptiously
p184
aVindiscretion
p185
aVnordoff
p186
aVmason
p187
aVencourage
p188
aVadapt
p189
aVzellwegger
p190
aVoutburst
p191
aVabbott
p192
aVstamping
p193
aVabbots
p194
aVanonymously
p195
aVberistain
p196
aVpumpkins
p197
aVcorrects
p198
aVestimate
p199
aVuniversally
p200
aVchlorine
p201
aVreiser
p202
aVsickeningly
p203
aVmackey
p204
aVdisturbed
p205
aVcompeted
p206
aVdentures
p207
aVloudness
p208
aVwiseguys
p209
aVjuergen
p210
aVdisfigured
p211
aVstylistics
p212
aVmegabytes
p213
aVsooty
p214
aVtraction
p215
aVrenovated
p216
aVservice
p217
aVforrester
p218
aVcorsucant
p219
aVreuben
p220
aVneeded
p221
aVmaster
p222
aVcritter
p223
aVgenesis
p224
aVweendigo
p225
aVcaitlyn
p226
aVrewards
p227
aVenthrall
p228
aVoingo
p229
aVmutilated
p230
aVpositively
p231
aVahmed
p232
aVbannister
p233
aVhandcuffs
p234
aVmeditative
p235
aVahmet
p236
aVexclaimed
p237
aVfriend
p238
aVfeeling
p239
aVlongs
p240
aVsustaining
p241
aVspectrum
p242
aVlongo
p243
aVarousal
p244
aVurinate
p245
aVdozen
p246
aVaffairs
p247
aVwholesome
p248
aVcourier
p249
aVportillo
p250
aVuncouth
p251
aVracers
p252
aVtoothed
p253
aVworkmates
p254
aVshipments
p255
aVcommitting
p256
aVlimitless
p257
aVdiminishing
p258
aVvexing
p259
aVcinematic
p260
aVresonates
p261
aVdisjointed
p262
aVmouth
p263
aVreverence
p264
aVashes
p265
aVresonated
p266
aVexpound
p267
aVsinger
p268
aVmultiracial
p269
aVsinged
p270
aVfugitives
p271
aVkeeble
p272
aVrayden
p273
aVscream
p274
aVsaying
p275
aVteresa
p276
aVloitered
p277
aVpadded
p278
aVulcer
p279
aVtempted
p280
aVcheaply
p281
aVeliminated
p282
aVhounded
p283
aVorleans
p284
aVclicked
p285
aVbliss
p286
aVplate
p287
aVremaning
p288
aVvideodrome
p289
aVoutfielders
p290
aVplath
p291
aVplatt
p292
aVclumsiness
p293
aValtogether
p294
aVchyron
p295
aVdroning
p296
aVstoically
p297
aVnicely
p298
aVboarder
p299
aVpretzel
p300
aVpatch
p301
aVeyelids
p302
aVboarded
p303
aVmuddled
p304
aVjovivich
p305
aVheirloom
p306
aVclarified
p307
aVsensitivity
p308
aVpinon
p309
aVslashfest
p310
aVplayfulness
p311
aVdeadpan
p312
aVsanxay
p313
aVdroves
p314
aVbandaras
p315
aVletting
p316
aVdethrones
p317
aVextend
p318
aVnature
p319
aVlapping
p320
aVextent
p321
aVreacquaints
p322
aVtyranny
p323
aVbenigness
p324
aVvoyeuristic
p325
aVhimalayas
p326
aVincense
p327
aVfruity
p328
aVlookin
p329
aVmelinda
p330
aVfearlessly
p331
aVeradicate
p332
aVzigged
p333
aVrehash
p334
aVmortified
p335
aVmaclaine
p336
aVgopher
p337
aVgypsies
p338
aVfondled
p339
aVcharnel
p340
aVaffiliated
p341
aVsurname
p342
aVblonde
p343
aVunderdone
p344
aVmilquetoast
p345
aVmarshmallows
p346
aVunion
p347
aVbothers
p348
aVwyman
p349
aVtonino
p350
aVtoning
p351
aVocious
p352
aVobese
p353
aVpremier
p354
aVretrospect
p355
aVarkin
p356
aVfreehold
p357
aValmasy
p358
aVboardroom
p359
aVdoubts
p360
aVprofessionally
p361
aVparaglider
p362
aVemploy
p363
aVnfeatured
p364
aVmisconstrued
p365
aVprostrate
p366
aVadulterous
p367
aVcanoeing
p368
aVditching
p369
aVverges
p370
aVlackies
p371
aVmirabella
p372
aVeighteen
p373
aVhaplessly
p374
aVoxymoron
p375
aVbreakfast
p376
aVprotovision
p377
aVmemorial
p378
aVemmylou
p379
aVinventively
p380
aVportobello
p381
aVremand
p382
aVmummified
p383
aVspews
p384
aVsplit
p385
aVcodename
p386
aVprincipals
p387
aVcavanaugh
p388
aVboiled
p389
aVeffortlessly
p390
aVissac
p391
aVfrenchmen
p392
aVvivien
p393
aVtorpedoes
p394
aVmarched
p395
aVbuliwyf
p396
aVboiler
p397
aVrulebook
p398
aVfeatherweight
p399
aVnoblewoman
p400
aVmentors
p401
aVacademic
p402
aVstillness
p403
aVacademia
p404
aVgoofing
p405
aVodile
p406
aVwaitering
p407
aVcorporate
p408
aVmassaging
p409
aVfalstaff
p410
aVgigolo
p411
aVbelloq
p412
aVabsurdities
p413
aVgolden
p414
aVbacri
p415
aVhomogeneity
p416
aVsnickered
p417
aVportrayed
p418
aVlasso
p419
aVrasaan
p420
aVespouses
p421
aVinsubordination
p422
aVmcnamara
p423
aVbeloved
p424
aVduffel
p425
aVheartwrenching
p426
aVespoused
p427
aVpreciously
p428
aVelders
p429
aVsurvival
p430
aVunequivocally
p431
aVotherworldly
p432
aVindicative
p433
aVshadow
p434
aVflotsam
p435
aVballhaus
p436
aVsleuthing
p437
aVdelectably
p438
aValice
p439
aVnoteables
p440
aVfestivities
p441
aVmisdemeanors
p442
aVunabashedly
p443
aVattorney
p444
aVcrowd
p445
aVcrowe
p446
aVczech
p447
aVmosques
p448
aVcrown
p449
aVtopping
p450
aVdeflection
p451
aVcaptive
p452
aVbillboard
p453
aVnamuth
p454
aVpesimism
p455
aVbottom
p456
aVchabert
p457
aVinhuman
p458
aVplucked
p459
aVcrookier
p460
aVmonogamy
p461
aVseagrave
p462
aVsubkoff
p463
aVunequipped
p464
aVrooker
p465
aVbarcode
p466
aVeduard
p467
aVstarring
p468
aVmediocrity
p469
aVdisdains
p470
aVhudlin
p471
aVstoker
p472
aVcaraciture
p473
aVrestlessness
p474
aVbenches
p475
aVfilmcritic
p476
aVbicentennial
p477
aVoneness
p478
aVmussenden
p479
aVstoked
p480
aVwhoaaaaaa
p481
aVkilgore
p482
aVdahlings
p483
aVmaxwell
p484
aVmarshall
p485
aVhoneymoon
p486
aVliebes
p487
aVbeings
p488
aVmarshals
p489
aVhallucinogenic
p490
aVshoots
p491
aVaggressivelly
p492
aVdespised
p493
aVfabric
p494
aVcoordinators
p495
aVsuffice
p496
aVraped
p497
aVgrasping
p498
aVdespises
p499
aVgreatness
p500
aVrapes
p501
aVgrooms
p502
aVspurting
p503
aVballisitic
p504
aVcongratulations
p505
aVhypsy
p506
aVhumbled
p507
aVmasquerading
p508
aVsmashes
p509
aVhumbler
p510
aVcomplications
p511
aVsmashed
p512
aVpassenger
p513
aVdisgrace
p514
aVbarrymore
p515
aVminah
p516
aVunnerve
p517
aVyankovich
p518
aVdecapitation
p519
aVpaperwork
p520
aVtriangles
p521
aVslurring
p522
aVspacemusic
p523
aVbiederman
p524
aVdowling
p525
aVcambodia
p526
aVasshole
p527
aVrioters
p528
aVpasadena
p529
aVobliges
p530
aVwreaked
p531
aVvegetative
p532
aVwordlessly
p533
aVspielbergization
p534
aVintend
p535
aVpalms
p536
aVslaver
p537
aVtransported
p538
aVpalme
p539
aVcomely
p540
aVintent
p541
aVsmelling
p542
aVvariable
p543
aVbatmans
p544
aVhawkes
p545
aVexplosions
p546
aVloren
p547
aVmeteorologist
p548
aVshootout
p549
aVoverturned
p550
aVchilds
p551
aVcincinnati
p552
aVchain
p553
aVwhoever
p554
aVbandits
p555
aVchair
p556
aVmacht
p557
aVballet
p558
aVmalintentioned
p559
aVgrapples
p560
aVbitchie
p561
aVfreelance
p562
aVcrates
p563
aVcrater
p564
aVsilencers
p565
aVunderlining
p566
aVoverpopulated
p567
aVobssessed
p568
aVmacho
p569
aVoversight
p570
aVtenacious
p571
aVdownloading
p572
aVpaychecks
p573
aVtastefully
p574
aVprancer
p575
aVprances
p576
aVchoice
p577
aVembark
p578
aVgloomy
p579
aVghostbusters
p580
aVstays
p581
aVexact
p582
aVminute
p583
aVcooks
p584
aVmasturbates
p585
aVminnie
p586
aVskewed
p587
aVskewer
p588
aVxenophobe
p589
aVdialogueless
p590
aVtrails
p591
aVcopyrighted
p592
aVheavyweight
p593
aVchopping
p594
aVshirts
p595
aVogled
p596
aVheadset
p597
aVlavishness
p598
aVmassironi
p599
aVantwerp
p600
aVcelebrated
p601
aVgeography
p602
aVcelebrates
p603
aVunintentionally
p604
aVdrafted
p605
aVoldies
p606
aVclimbs
p607
aVblunted
p608
aVtopicality
p609
aVgladys
p610
aVaddress
p611
aVreclining
p612
aVdwindling
p613
aVbenson
p614
aVmafioso
p615
aVplunges
p616
aVaccomplishes
p617
aVdusty
p618
aVimpacted
p619
aVcusack
p620
aVaccomplished
p621
aVsprouted
p622
aVexpressively
p623
aVenrols
p624
aVinflux
p625
aVkasinsky
p626
aVhouseman
p627
aVbetraying
p628
aVfakery
p629
aVdarnell
p630
aVundergone
p631
aVworking
p632
aVgoregeous
p633
aVoldham
p634
aVopposed
p635
aVportorican
p636
aVfamilar
p637
aVperishes
p638
aVooooooo
p639
aVassimilation
p640
aVsierra
p641
aVconsoles
p642
aVriders
p643
aVrebounding
p644
aVtitanium
p645
aVoriginally
p646
aVabortion
p647
aVamericanised
p648
aVharmonious
p649
aVgoody
p650
aVfollowing
p651
aVzippers
p652
aVadmired
p653
aVmirrors
p654
aVstetson
p655
aVparachute
p656
aVlocks
p657
aVsextette
p658
aVadmires
p659
aVadmirer
p660
aVlistens
p661
aVseptic
p662
aVvainly
p663
aVthanking
p664
aVedouard
p665
aVmaude
p666
aVrewatched
p667
aVmintues
p668
aVcasualness
p669
aVmythos
p670
aVconvincingly
p671
aVfueled
p672
aVmeddled
p673
aVcommensurately
p674
aVbrainless
p675
aVegotistical
p676
aVsurfing
p677
aVjonnie
p678
aVconscious
p679
aVregressive
p680
aVnebbish
p681
aVskirmish
p682
aVwolves
p683
aVpulled
p684
aVmanga
p685
aVimpactful
p686
aVyears
p687
aVprofessors
p688
aVstructuring
p689
aVepisodes
p690
aVkyzynski
p691
aVprofessory
p692
aVoverlord
p693
aVdisconnect
p694
aVslimeball
p695
aVmilked
p696
aVtroubles
p697
aVrudnick
p698
aVwahlberg
p699
aVsuspension
p700
aVtroubled
p701
aVmodestly
p702
aVrecipients
p703
aVcivilian
p704
aVcourageously
p705
aVindigenous
p706
aVoverpowering
p707
aVdrilling
p708
aVworkmanlike
p709
aVhenpecked
p710
aVsorted
p711
aVmaterialized
p712
aVdispite
p713
aVfisherman
p714
aVbattleships
p715
aVinstability
p716
aVquarter
p717
aVgreenwald
p718
aVquartet
p719
aVmaterializes
p720
aVretrieve
p721
aVbursting
p722
aVreceipt
p723
aVremembrance
p724
aVsponsor
p725
aVentering
p726
aVsalads
p727
aVdisasters
p728
aVbouyant
p729
aVinterned
p730
aVyojimbo
p731
aVseriously
p732
aVtrauma
p733
aVfirorina
p734
aVinternet
p735
aVmerpeople
p736
aVhenreid
p737
aVigniting
p738
aVrealisation
p739
aVcomplicates
p740
aVdisintegrated
p741
aVhairdresser
p742
aVcomplicated
p743
aVgrandma
p744
aVmarla
p745
aVmodest
p746
aVmarlo
p747
aVinitiate
p748
aVaboard
p749
aVsocking
p750
aVneglect
p751
aVemotion
p752
aVgunshot
p753
aVtingles
p754
aVsaving
p755
aVsymmetry
p756
aVspoken
p757
aVvelda
p758
aVsavini
p759
aVwestlake
p760
aVreprisal
p761
aVpunishable
p762
aVperiodical
p763
aVhaviland
p764
aVtamara
p765
aVplotless
p766
aVexaggerations
p767
aVstifler
p768
aVstifles
p769
aVformulates
p770
aVstifled
p771
aVhurricaine
p772
aVoversimplified
p773
aVlingering
p774
aVfeatherbrained
p775
aVbeesley
p776
aVcherbourg
p777
aVshawn
p778
aVsurges
p779
aVsnatch
p780
aVdevito
p781
aVanthesis
p782
aVabsorbs
p783
aVhoyle
p784
aVgisbourne
p785
aVcrossroads
p786
aVadmitedly
p787
aVrehab
p788
aVwandering
p789
aVdisasterous
p790
aVdilemnas
p791
aVbulow
p792
aVillness
p793
aVaaaaaaaahhhh
p794
aVstylings
p795
aVsumptuous
p796
aVturned
p797
aVlocations
p798
aVjewels
p799
aVbalsan
p800
aVuninterrupted
p801
aVturner
p802
aVpoliticos
p803
aVinvite
p804
aVpimply
p805
aVcigarettes
p806
aVwarriors
p807
aVgoodman
p808
aVportents
p809
aVmartineau
p810
aVmayer
p811
aVpimple
p812
aVmurphy
p813
aVopposite
p814
aVdiscerning
p815
aVspewing
p816
aVbuffet
p817
aVprinted
p818
aVknowingly
p819
aVbuffed
p820
aVcaptivatingly
p821
aVtouchy
p822
aVscumball
p823
aVtoucha
p824
aVjitters
p825
aVmessier
p826
aVjittery
p827
aVlydia
p828
aVfeuds
p829
aVdelroy
p830
aVfakeouts
p831
aVimagines
p832
aVfriction
p833
aVhommage
p834
aVoderkerk
p835
aVinconsistent
p836
aVsoviets
p837
aVimagined
p838
aVseminal
p839
aVreconciling
p840
aVcoaxing
p841
aVremastered
p842
aVguarded
p843
aVrejoiced
p844
aVsuitcases
p845
aVrevolutionized
p846
aVtilting
p847
aVsimplistic
p848
aVawaiting
p849
aVpartnered
p850
aVkeenly
p851
aVcarrion
p852
aVrecoiling
p853
aVchoudhury
p854
aVvision
p855
aVmorose
p856
aVattenuated
p857
aVunderbids
p858
aVaudaciously
p859
aVimpressions
p860
aVintoxicating
p861
aVaboslutely
p862
aVdefensively
p863
aVretells
p864
aVmasturbatory
p865
aValarming
p866
aVdismemberment
p867
aVmoons
p868
aVenjoys
p869
aVplayhouse
p870
aVlyricized
p871
aVtamahori
p872
aVbraggarts
p873
aVpunts
p874
aVawards
p875
aVmenacing
p876
aVuncharacteristically
p877
aVconcentrated
p878
aVbusting
p879
aVrhodes
p880
aVmatheson
p881
aVmillionaire
p882
aVflipped
p883
aVpoliced
p884
aVworkplace
p885
aVconcentrates
p886
aVflipper
p887
aVdoctoring
p888
aVloveliest
p889
aVbeowolf
p890
aVanette
p891
aVcomparitive
p892
aVcollides
p893
aVdeuteronomy
p894
aVcollided
p895
aVmotives
p896
aVpseudonymous
p897
aVspyglass
p898
aVwants
p899
aVvomits
p900
aVtomei
p901
aVformed
p902
aVphoton
p903
aVreadings
p904
aVphotos
p905
aVtightened
p906
aVabject
p907
aVformer
p908
aVsommers
p909
aVdefeatist
p910
aVstraighten
p911
aVsqueezes
p912
aVbutchers
p913
aVrylance
p914
aVapropos
p915
aVnewspaper
p916
aVsituation
p917
aVpenthouse
p918
aVunlikeable
p919
aVengaged
p920
aVvamires
p921
aVdubious
p922
aVmenancing
p923
aVengages
p924
aVdemolition
p925
aVdebilitating
p926
aVingrained
p927
aVnuptials
p928
aVfistfights
p929
aVquiclky
p930
aVjessalyn
p931
aVbogglingly
p932
aVvisually
p933
aVwires
p934
aVedged
p935
aVassigns
p936
aVhideaway
p937
aVsingapore
p938
aVkrippendorf
p939
aVbrassed
p940
aVdeflate
p941
aVtolan
p942
aVedges
p943
aVamuck
p944
aVadvertisement
p945
aVratttz
p946
aVtracking
p947
aVdroppingly
p948
aVnothin
p949
aVpeculiarities
p950
aVdimension
p951
aVpersistently
p952
aVrecycles
p953
aVbeing
p954
aVbueller
p955
aVrecycled
p956
aVparlay
p957
aVprocreating
p958
aVrover
p959
aVgrounded
p960
aVexcuses
p961
aVcloris
p962
aVadroit
p963
aVoverthrow
p964
aVhaystack
p965
aVdicks
p966
aVellen
p967
aVabsense
p968
aVholdover
p969
aVsportsmanship
p970
aVrejoin
p971
aVunveil
p972
aVromps
p973
aVtraffic
p974
aVpreference
p975
aVworld
p976
aVembrassment
p977
aVpostal
p978
aVlikeablity
p979
aVsensational
p980
aVmalfunctions
p981
aVunrepentant
p982
aVleeanne
p983
aVsuperiority
p984
aVglamor
p985
aVpetrice
p986
aVconfrontatory
p987
aVsatisfactory
p988
aVsuperintendent
p989
aVdilbert
p990
aVmagma
p991
aVdemeaning
p992
aVdiving
p993
aVstagecoach
p994
aVdivine
p995
aVbongos
p996
aVcavity
p997
aVseaman
p998
aVfrancois
p999
aVrestoring
p1000
aVsquabble
p1001
aVaverse
p1002
aVmacgowan
p1003
aVretains
p1004
aVleadership
p1005
aVpiscapo
p1006
aVthailand
p1007
aVpetey
p1008
aVprepared
p1009
aVdemarco
p1010
aVexasperating
p1011
aVloyalties
p1012
aVhopkins
p1013
aVmajorino
p1014
aVstanleyville
p1015
aVfrights
p1016
aVniall
p1017
aVjohnston
p1018
aVlocklear
p1019
aVsensitively
p1020
aVrabbinical
p1021
aVperturbed
p1022
aVshapely
p1023
aVburial
p1024
aVantidote
p1025
aVtortuous
p1026
aVineffable
p1027
aVlively
p1028
aVbukater
p1029
aVpivot
p1030
aVconceptually
p1031
aVrossi
p1032
aVuhhhhhm
p1033
aVcomplexly
p1034
aVdistractedness
p1035
aVgleam
p1036
aVglean
p1037
aVlounging
p1038
aVredirection
p1039
aVmindless
p1040
aVmissy
p1041
aVsealed
p1042
aVbrazilian
p1043
aVbubble
p1044
aVcecilia
p1045
aVcontinents
p1046
aVbohemians
p1047
aVguitry
p1048
aVsocietal
p1049
aVforeheads
p1050
aVabused
p1051
aVthumps
p1052
aVmonopoly
p1053
aVtripe
p1054
aVclaustral
p1055
aVchomped
p1056
aVdirty
p1057
aVabuser
p1058
aVabuses
p1059
aVtrips
p1060
aVtripp
p1061
aVpatois
p1062
aVgratuitous
p1063
aVwatches
p1064
aVwatcher
p1065
aVtragicomic
p1066
aVassociating
p1067
aVtoontown
p1068
aVwatched
p1069
aVjargon
p1070
aVtremble
p1071
aVdampens
p1072
aVcream
p1073
aVmoniker
p1074
aVideally
p1075
aVsympathetically
p1076
aVunwelcomed
p1077
aVintrospection
p1078
aVhofstra
p1079
aVunparalleled
p1080
aVfriggin
p1081
aVpuppy
p1082
aVwaving
p1083
aVmidget
p1084
aVbrotherhood
p1085
aVlinebackers
p1086
aVfedoras
p1087
aVtricky
p1088
aVnatalie
p1089
aVthora
p1090
aVtricks
p1091
aVmaliciously
p1092
aVfinklestein
p1093
aVcaused
p1094
aVbeware
p1095
aVzappa
p1096
aVcauses
p1097
aVriots
p1098
aVconciousness
p1099
aVsedition
p1100
aVcarters
p1101
aVpowaqqatsi
p1102
aVfloated
p1103
aVsuspensefully
p1104
aVrootless
p1105
aVboozed
p1106
aVshenanigans
p1107
aVroadster
p1108
aVdesertion
p1109
aVnighthawks
p1110
aVunwraps
p1111
aVsmall
p1112
aVcourtesans
p1113
aVabbreviated
p1114
aVquicker
p1115
aVhealed
p1116
aVdisplays
p1117
aVwakes
p1118
aVhealer
p1119
aVinvestment
p1120
aVamarcord
p1121
aVshockwave
p1122
aVclock
p1123
aVskywalker
p1124
aVcolonists
p1125
aVdwells
p1126
aVdiapers
p1127
aVportrays
p1128
aVcivilians
p1129
aVnovember
p1130
aVmelancholic
p1131
aVcontrastingly
p1132
aVlandslide
p1133
aVexperience
p1134
aVanthropologists
p1135
aVprior
p1136
aVbeaman
p1137
aVperiodic
p1138
aVcessation
p1139
aVskepticism
p1140
aVnorville
p1141
aVfollowed
p1142
aVretroactive
p1143
aVscharzenegger
p1144
aVtraumatized
p1145
aVfollower
p1146
aVcrowned
p1147
aVtraumatizes
p1148
aVcynics
p1149
aVwaterlogged
p1150
aVautomats
p1151
aVsilva
p1152
aVattendance
p1153
aVenliven
p1154
aVbriesewitz
p1155
aVunrecognizable
p1156
aVfirth
p1157
aVglowers
p1158
aVbarbarino
p1159
aVinitiated
p1160
aVchucky
p1161
aVcompany
p1162
aVcorrected
p1163
aVtested
p1164
aVlameness
p1165
aVnegativity
p1166
aVbirdie
p1167
aVleary
p1168
aVkaminski
p1169
aVfornicators
p1170
aVpatriarch
p1171
aVkaminsky
p1172
aVlearn
p1173
aVknocked
p1174
aVgrope
p1175
aVscramble
p1176
aVbarclay
p1177
aVallegra
p1178
aVmeaney
p1179
aVmemoirs
p1180
aVmeaner
p1181
aVtwotg
p1182
aVundeterred
p1183
aVprostration
p1184
aVpilleggi
p1185
aVrespective
p1186
aVhickey
p1187
aVedgecomb
p1188
aVmultitudes
p1189
aVspeedboat
p1190
aVdismissed
p1191
aVdismisses
p1192
aVsprinkle
p1193
aVlanky
p1194
aVintended
p1195
aVmendes
p1196
aVthickened
p1197
aVdisgraced
p1198
aVsympathize
p1199
aVhackwork
p1200
aVhockley
p1201
aVmaltese
p1202
aVhuddled
p1203
aVmalevolent
p1204
aVjiang
p1205
aVresemble
p1206
aVsublte
p1207
aVtwisting
p1208
aVtiegs
p1209
aVdolph
p1210
aVovercooked
p1211
aVreplied
p1212
aVweirdoes
p1213
aVpeppy
p1214
aVinstalled
p1215
aVresorts
p1216
aVpaper
p1217
aVscott
p1218
aVreplies
p1219
aVsmiling
p1220
aVsigny
p1221
aVroots
p1222
aVsaucy
p1223
aVmistreated
p1224
aVtantalizingly
p1225
aVethnocentric
p1226
aVsublimated
p1227
aVhounds
p1228
aVisaak
p1229
aVblunderheaded
p1230
aVbummer
p1231
aVisaac
p1232
aVsauce
p1233
aVreintroduced
p1234
aVcolleague
p1235
aVcartman
p1236
aVfrizzi
p1237
aVabandons
p1238
aVuniversality
p1239
aVgadget
p1240
aVfrizzy
p1241
aVbalaban
p1242
aVweeds
p1243
aVidols
p1244
aVprocreate
p1245
aVeverytime
p1246
aVdenny
p1247
aVcourses
p1248
aVhatchette
p1249
aVrepayment
p1250
aVshocking
p1251
aVreactions
p1252
aVbrunette
p1253
aVnumeric
p1254
aVscalvaging
p1255
aVchrissy
p1256
aVoperation
p1257
aVcenturies
p1258
aVinquired
p1259
aVlipstick
p1260
aVernie
p1261
aVkensington
p1262
aVbuzzsaw
p1263
aVresearch
p1264
aVinquires
p1265
aVoccurs
p1266
aVinsubordinate
p1267
aVabnormally
p1268
aVpoignantly
p1269
aVwachowskis
p1270
aVdefinition
p1271
aVpairs
p1272
aVtheroux
p1273
aVvilliany
p1274
aVunjustifyably
p1275
aVtestament
p1276
aVexistential
p1277
aVporpoise
p1278
aVhorndog
p1279
aVtrekkie
p1280
aVterrifyingly
p1281
aVbrutally
p1282
aVpreservation
p1283
aVarlington
p1284
aVswipe
p1285
aVmoderately
p1286
aVheartedness
p1287
aVbigscreen
p1288
aVexcitable
p1289
aVbedridden
p1290
aVstallions
p1291
aVkindergartner
p1292
aVessays
p1293
aVpeaceably
p1294
aVjustly
p1295
aVinterviewed
p1296
aVtyphoon
p1297
aVcheekbones
p1298
aVchapelle
p1299
aVtheater
p1300
aVstifle
p1301
aVoilrig
p1302
aVpyroclastic
p1303
aVfunicello
p1304
aVstormare
p1305
aVcondolences
p1306
aVbruckheimer
p1307
aVgetaway
p1308
aVcharges
p1309
aVdismantling
p1310
aVprescott
p1311
aVnavigators
p1312
aVmensch
p1313
aVorganisations
p1314
aVswanky
p1315
aVguarding
p1316
aVgraffiti
p1317
aVblond
p1318
aVcleon
p1319
aVcleverness
p1320
aVnosebleeding
p1321
aVantagonizes
p1322
aVtarnish
p1323
aVmoseys
p1324
aVelisa
p1325
aVrecognizing
p1326
aVsebastiano
p1327
aVconscription
p1328
aVsharpe
p1329
aVbastad
p1330
aVlunges
p1331
aVpringles
p1332
aVsingles
p1333
aVmistic
p1334
aVraucous
p1335
aVvirus
p1336
aVnarrations
p1337
aVsingled
p1338
aVunderstands
p1339
aVomaha
p1340
aVseize
p1341
aVsometimes
p1342
aVflits
p1343
aVbarred
p1344
aVcultivating
p1345
aVbarren
p1346
aVbarrel
p1347
aVshread
p1348
aVamusements
p1349
aVharvests
p1350
aVdragonflies
p1351
aVambiguities
p1352
aVcrowbar
p1353
aVblended
p1354
aVaccommodations
p1355
aVcolorized
p1356
aVnaomi
p1357
aVoverwhelmed
p1358
aVcaruso
p1359
aVwraps
p1360
aVkinkiness
p1361
aVneophytes
p1362
aVgooey
p1363
aVroyalist
p1364
aVcassette
p1365
aVsnobbish
p1366
aVcrashlands
p1367
aVindifference
p1368
aVlombard
p1369
aVhaskin
p1370
aVsecular
p1371
aVceasing
p1372
aVsunny
p1373
aVinformants
p1374
aVyeager
p1375
aVremedy
p1376
aVcompass
p1377
aVdamnit
p1378
aVdistraction
p1379
aVdevoured
p1380
aVsects
p1381
aVpleasures
p1382
aVtanked
p1383
aVsojourn
p1384
aVambling
p1385
aVtanker
p1386
aVpleasured
p1387
aVrumored
p1388
aVinsane
p1389
aVdelicately
p1390
aVactivists
p1391
aVcollectively
p1392
aVoverboard
p1393
aVallie
p1394
aVproject
p1395
aVrichelieu
p1396
aVstoryboarded
p1397
aVthrive
p1398
aVgoggins
p1399
aVuntouched
p1400
aVcanran
p1401
aVlegitimately
p1402
aVswigert
p1403
aVconnection
p1404
aVamoeba
p1405
aVretarded
p1406
aVonofrio
p1407
aVdisilusioned
p1408
aVacted
p1409
aVadaptation
p1410
aVseldes
p1411
aVunthrilling
p1412
aVwarfield
p1413
aVunarguably
p1414
aVsatire
p1415
aVimperfections
p1416
aVsuburbs
p1417
aVproprietor
p1418
aVinitiation
p1419
aVportait
p1420
aVfaulkner
p1421
aVpatrolled
p1422
aVgloating
p1423
aVcombatants
p1424
aVinfect
p1425
aVamphibians
p1426
aVadaptable
p1427
aVdiverted
p1428
aVawake
p1429
aVdespite
p1430
aVmournful
p1431
aVmagwitch
p1432
aVexponential
p1433
aVcaged
p1434
aVexpanded
p1435
aVbudget
p1436
aVadmire
p1437
aVcagey
p1438
aVpressed
p1439
aVfrighteners
p1440
aVbogan
p1441
aVcages
p1442
aVnervousness
p1443
aVagitation
p1444
aVbinding
p1445
aVcuisine
p1446
aVraiders
p1447
aVphelps
p1448
aVpridefully
p1449
aVmatchmakers
p1450
aVcayman
p1451
aVugliness
p1452
aVcalculation
p1453
aVimprovisationaly
p1454
aVflooded
p1455
aVeverclear
p1456
aVfleischer
p1457
aVwunderkind
p1458
aVvargas
p1459
aVclimb
p1460
aVinfamous
p1461
aVsymbolise
p1462
aVcronenberg
p1463
aVscoffs
p1464
aVlooted
p1465
aVcomposed
p1466
aVrudolph
p1467
aVdetract
p1468
aVgripe
p1469
aVsalva
p1470
aVcheddar
p1471
aVcrackled
p1472
aVthaddeus
p1473
aVhercules
p1474
aVcrackles
p1475
aVtruism
p1476
aVcuffs
p1477
aVrangers
p1478
aVresemblances
p1479
aVparents
p1480
aVdepravity
p1481
aVcomprehensible
p1482
aVpromiss
p1483
aVcormack
p1484
aVemergency
p1485
aVimpaling
p1486
aVcouple
p1487
aVbureaucrat
p1488
aVemanating
p1489
aVwives
p1490
aVabound
p1491
aVemergence
p1492
aVthurman
p1493
aVmarquee
p1494
aVspine
p1495
aVchorus
p1496
aVindividuals
p1497
aVbogie
p1498
aVtribes
p1499
aVexplainable
p1500
aVturvy
p1501
aValexandre
p1502
aVspins
p1503
aVcrescendo
p1504
aVmethods
p1505
aVgoddamn
p1506
aVunsubstantial
p1507
aVbounce
p1508
aVahern
p1509
aVbouncy
p1510
aVgreener
p1511
aVunderbelly
p1512
aVtelefixated
p1513
aVscrubs
p1514
aVmeasurements
p1515
aVnovelty
p1516
aVbenefit
p1517
aVbehave
p1518
aVwhodunit
p1519
aVaissa
p1520
aVseclusion
p1521
aVinserting
p1522
aVjovovich
p1523
aVobscures
p1524
aVrespite
p1525
aVgrotesqe
p1526
aVjanusz
p1527
aVobscured
p1528
aVdirtier
p1529
aVcranked
p1530
aVdeserved
p1531
aVsimplify
p1532
aVscorces
p1533
aVwrinkles
p1534
aVmelbourne
p1535
aVdeserves
p1536
aVscraggly
p1537
aVmalarkey
p1538
aVgallagher
p1539
aVcanning
p1540
aVtornatore
p1541
aVterrorists
p1542
aVcoaxed
p1543
aVdisturbingly
p1544
aVunredeemable
p1545
aVcatchiness
p1546
aVmiddleton
p1547
aVcontroversies
p1548
aVchirping
p1549
aVkatie
p1550
aVinteractivity
p1551
aVharnessed
p1552
aVtasting
p1553
aVgases
p1554
aVatheists
p1555
aVmishandle
p1556
aVprowling
p1557
aVpurred
p1558
aVrestraints
p1559
aVopens
p1560
aVconsiderably
p1561
aVatlantis
p1562
aVjacks
p1563
aVhawaiian
p1564
aVpalentologist
p1565
aVsolaris
p1566
aVdeductions
p1567
aVatlantic
p1568
aVcarping
p1569
aVrealists
p1570
aVconsiderable
p1571
aVintestines
p1572
aVjacki
p1573
aVfades
p1574
aVcharmed
p1575
aVerich
p1576
aVpissant
p1577
aVtestaments
p1578
aVastronomer
p1579
aVerica
p1580
aVpaired
p1581
aVphallus
p1582
aVfaded
p1583
aVkihlstedt
p1584
aVawestruck
p1585
aVinfluence
p1586
aVhaunt
p1587
aVportentuous
p1588
aVglobally
p1589
aVthomsen
p1590
aVdiverse
p1591
aVpalisades
p1592
aVsurveying
p1593
aVfrontgate
p1594
aVneilsen
p1595
aVspearing
p1596
aVintrepid
p1597
aVpainkiller
p1598
aVpuzzling
p1599
aVcopulate
p1600
aVconjure
p1601
aVconceptions
p1602
aVheebie
p1603
aVrevision
p1604
aVduper
p1605
aVoblige
p1606
aVgardenia
p1607
aVstrums
p1608
aVaussies
p1609
aVbianca
p1610
aVmckidd
p1611
aVdancefloor
p1612
aVflyboy
p1613
aVsuppression
p1614
aVrhythmless
p1615
aVeuphegenia
p1616
aVmethodologies
p1617
aVwafer
p1618
aVadvertisment
p1619
aVpurged
p1620
aVprizes
p1621
aVmodernizing
p1622
aVzzzzzzz
p1623
aVsplashing
p1624
aVunbuttoning
p1625
aVbroader
p1626
aVamiss
p1627
aVflashback
p1628
aVhumpback
p1629
aVdetectives
p1630
aVamalgamation
p1631
aVturkish
p1632
aVhorsing
p1633
aVdickinson
p1634
aVcarelessly
p1635
aVindicating
p1636
aVuploaded
p1637
aVlindner
p1638
aVboatload
p1639
aVaatish
p1640
aVmillieu
p1641
aValienbusting
p1642
aVdryland
p1643
aVprakazrel
p1644
aVtraumatised
p1645
aVkoppelman
p1646
aVpetitions
p1647
aVdecorating
p1648
aVrosselini
p1649
aVsquirt
p1650
aVherzfeld
p1651
aVdetested
p1652
aVyakov
p1653
aVlombardo
p1654
aVrifling
p1655
aVwhooping
p1656
aVfewer
p1657
aVdamning
p1658
aVyevgeny
p1659
aVdisheveled
p1660
aVleonardi
p1661
aVleonardo
p1662
aVmaclachlan
p1663
aVdysfuntion
p1664
aVcannibals
p1665
aVmishap
p1666
aVcrook
p1667
aVvideo
p1668
aVdynamics
p1669
aVrediscovers
p1670
aVvictor
p1671
aVsweats
p1672
aVwaning
p1673
aVsweaty
p1674
aVhenceforth
p1675
aVturnaround
p1676
aVslickster
p1677
aVflowing
p1678
aVcharade
p1679
aVharassing
p1680
aVguamo
p1681
aVforwarned
p1682
aVapace
p1683
aVsquirming
p1684
aVpalladino
p1685
aVfifteen
p1686
aVkriss
p1687
aVbakersfield
p1688
aVunwittingly
p1689
aVrehabilitation
p1690
aVquaint
p1691
aVsurvey
p1692
aVmakes
p1693
aVmaker
p1694
aVthats
p1695
aVpanicked
p1696
aVdumbest
p1697
aVdesiring
p1698
aVconfidence
p1699
aVexcising
p1700
aVgregor
p1701
aVzsigmond
p1702
aVguideline
p1703
aVeleven
p1704
aVassuring
p1705
aVmccleod
p1706
aVtahoe
p1707
aVbinges
p1708
aVyugoslavian
p1709
aVpencil
p1710
aVinterogation
p1711
aVlosin
p1712
aVactualy
p1713
aVantichrist
p1714
aVdocumentarian
p1715
aVcustomer
p1716
aVhessian
p1717
aVintegrating
p1718
aVclients
p1719
aVunknowns
p1720
aVretell
p1721
aVharve
p1722
aVinitation
p1723
aVscatter
p1724
aVwedge
p1725
aVpainstakingly
p1726
aVprocess
p1727
aVcoolness
p1728
aVpromotional
p1729
aVaughra
p1730
aVnears
p1731
aVbolstered
p1732
aVneary
p1733
aVengagingly
p1734
aVeducational
p1735
aVprocures
p1736
aVraeeyain
p1737
aVpaled
p1738
aVschandling
p1739
aVtightrope
p1740
aVprocured
p1741
aVbilingual
p1742
aVhormones
p1743
aVburley
p1744
aVcomedy
p1745
aVintelligent
p1746
aVpales
p1747
aVincongruent
p1748
aVinternalize
p1749
aVpsychiatric
p1750
aVretrograding
p1751
aVupstate
p1752
aVrealized
p1753
aVclarkson
p1754
aVrobot
p1755
aVrealizes
p1756
aVsciorra
p1757
aVtypicalness
p1758
aVhouston
p1759
aVevolutionary
p1760
aVthigh
p1761
aVinsight
p1762
aVfrieberg
p1763
aVspatula
p1764
aVdirects
p1765
aVhotcakes
p1766
aVperfect
p1767
aVbyline
p1768
aVjetsons
p1769
aVmeantime
p1770
aVthieves
p1771
aVderivative
p1772
aVsabotaging
p1773
aVprosper
p1774
aVvocalized
p1775
aVvicariously
p1776
aVoveral
p1777
aVisacsson
p1778
aVsnake
p1779
aVrealize
p1780
aVreconstruction
p1781
aVdamian
p1782
aVspilling
p1783
aVscenic
p1784
aVzeist
p1785
aVdenzel
p1786
aVshortage
p1787
aVweismuller
p1788
aVglasses
p1789
aVgoldsman
p1790
aVsuitors
p1791
aVdeficiency
p1792
aVleplastrier
p1793
aVbooks
p1794
aVresuscitate
p1795
aVbigfoot
p1796
aVshannon
p1797
aVmatrix
p1798
aVlimousines
p1799
aVnarratively
p1800
aVfrowns
p1801
aVsever
p1802
aVunprepared
p1803
aVhighs
p1804
aVburke
p1805
aVunwieldy
p1806
aVinferiority
p1807
aVgreedy
p1808
aVgawain
p1809
aVdisintegrating
p1810
aVinitialize
p1811
aVpothead
p1812
aVglistening
p1813
aVmainland
p1814
aVprepare
p1815
aVblandy
p1816
aVgallons
p1817
aVcould
p1818
aVchilly
p1819
aVlength
p1820
aVchills
p1821
aVerrol
p1822
aVbabyzilla
p1823
aVscene
p1824
aVsoothing
p1825
aVaffliction
p1826
aVleick
p1827
aVscent
p1828
aVerstwhile
p1829
aVfestival
p1830
aVlumet
p1831
aVfanaro
p1832
aVstabbin
p1833
aVsergeant
p1834
aVhenning
p1835
aVpervasive
p1836
aVenforcement
p1837
aVvigorous
p1838
aVquarry
p1839
aVpulman
p1840
aVsolon
p1841
aVbeastuality
p1842
aVincongruities
p1843
aVfatboy
p1844
aVegregious
p1845
aVroulette
p1846
aVcommandant
p1847
aVgentile
p1848
aVorchestrated
p1849
aVdaydreams
p1850
aVavery
p1851
aVfaulted
p1852
aVfalse
p1853
aVshrinks
p1854
aVchivalrous
p1855
aVtonight
p1856
aVponders
p1857
aVrichman
p1858
aVsufis
p1859
aVcecil
p1860
aVdepict
p1861
aVdishes
p1862
aVdished
p1863
aVbakshi
p1864
aVworldwide
p1865
aVjimmies
p1866
aVmanor
p1867
aVfujioka
p1868
aVpetals
p1869
aVcipher
p1870
aVunsexy
p1871
aVunsparing
p1872
aVauberjonois
p1873
aVplacement
p1874
aVpressured
p1875
aVwuthering
p1876
aVmarshalls
p1877
aVthanksgiving
p1878
aVperceiving
p1879
aVmustache
p1880
aVundersea
p1881
aVrainbows
p1882
aVwoolly
p1883
aVgreenhouse
p1884
aVattainable
p1885
aVnominally
p1886
aVfictious
p1887
aVconsciouness
p1888
aVrisqueness
p1889
aVgascogne
p1890
aVterminal
p1891
aVentities
p1892
aVbombings
p1893
aVriding
p1894
aVantagonism
p1895
aVprohibition
p1896
aVmolasses
p1897
aVwring
p1898
aVstyrofoam
p1899
aVantagonist
p1900
aVdominican
p1901
aVgertz
p1902
aVrapper
p1903
aVcomprising
p1904
aVtaxes
p1905
aVvying
p1906
aVocmic
p1907
aVstuff
p1908
aVtaxed
p1909
aVrapped
p1910
aVraceway
p1911
aVexude
p1912
aVguessing
p1913
aVallusion
p1914
aVqinqin
p1915
aVframe
p1916
aValessandro
p1917
aVtrods
p1918
aVdeconstructs
p1919
aVcaligari
p1920
aVdungeon
p1921
aVdestiny
p1922
aVinsulting
p1923
aVnuclear
p1924
aVcomprehendably
p1925
aVmelrose
p1926
aVcomprehendable
p1927
aVrepetitively
p1928
aVnesmith
p1929
aVpreminger
p1930
aVkeynote
p1931
aVditzism
p1932
aVifans
p1933
aVrefuting
p1934
aVimprobabilities
p1935
aVstaring
p1936
aVmarty
p1937
aVhammy
p1938
aVmarts
p1939
aVflanery
p1940
aVdoorway
p1941
aVunearthing
p1942
aVvadar
p1943
aVconclude
p1944
aVroughed
p1945
aVstylistically
p1946
aVfalseness
p1947
aVmailman
p1948
aVwormwood
p1949
aVmidland
p1950
aVcatholicism
p1951
aVgenetic
p1952
aVeviscerated
p1953
aVyoram
p1954
aVfeather
p1955
aVmarcellus
p1956
aValtruist
p1957
aVsheepish
p1958
aVcommuter
p1959
aVcommutes
p1960
aVswarmed
p1961
aVcoherence
p1962
aVhateful
p1963
aVswindling
p1964
aVbanish
p1965
aVmiscommunicated
p1966
aVlecherous
p1967
aVinadvertently
p1968
aVreminiscence
p1969
aVgamesmanship
p1970
aVeaton
p1971
aVhahaha
p1972
aVwhippersnappers
p1973
aVfielding
p1974
aVmiyake
p1975
aVstuffing
p1976
aVlawerence
p1977
aVlascivious
p1978
aVimpervious
p1979
aVransom
p1980
aVtattoo
p1981
aVostentatious
p1982
aVmoves
p1983
aVpauly
p1984
aVsubtitling
p1985
aVpaull
p1986
aVpainstaking
p1987
aVgibbs
p1988
aVpickin
p1989
aVchronicling
p1990
aVpaula
p1991
aVunimaginable
p1992
aVcomplemented
p1993
aVunsympathetic
p1994
aVcensoring
p1995
aVfraidy
p1996
aVberardinelli
p1997
aVidentity
p1998
aVshotgun
p1999
aVguaspari
p2000
aVdissing
p2001
aVpatterns
p2002
aVfashionable
p2003
aVadministered
p2004
aVaudio
p2005
aVtactfully
p2006
aVbraniff
p2007
aVnewest
p2008
aVobscenity
p2009
aVdissatisfying
p2010
aVsouped
p2011
aVcoalwood
p2012
aVclocks
p2013
aVdiedre
p2014
aVunmitigatedly
p2015
aVhauntingly
p2016
aVhuntingburg
p2017
aVtoyed
p2018
aVundulating
p2019
aVcrack
p2020
aVcontradictory
p2021
aVpractise
p2022
aVvillagers
p2023
aVliscinski
p2024
aVstooped
p2025
aVfalters
p2026
aVzimbabwe
p2027
aVhallucinates
p2028
aVatrophy
p2029
aVcinematographr
p2030
aVdebatable
p2031
aVbulge
p2032
aVmistrustful
p2033
aVflickering
p2034
aVbecome
p2035
aVassasination
p2036
aVnutsy
p2037
aVknifepoint
p2038
aVbrainerd
p2039
aVunderwent
p2040
aVbasque
p2041
aVimmortal
p2042
aVbrainers
p2043
aVgymnastics
p2044
aVchoosing
p2045
aVflush
p2046
aVhissing
p2047
aVhumming
p2048
aVrecognition
p2049
aVdelaurentiis
p2050
aVhipsters
p2051
aVmementos
p2052
aVbuehler
p2053
aVpassion
p2054
aVcopulation
p2055
aVbiology
p2056
aVuhhhm
p2057
aVbrokering
p2058
aVpressure
p2059
aVinfiltrating
p2060
aVimaginary
p2061
aVartillary
p2062
aVcoldly
p2063
aVhomemaker
p2064
aVlifestyle
p2065
aVlanger
p2066
aVburroughs
p2067
aVoutshines
p2068
aVblackness
p2069
aVsadoski
p2070
aVdocumentary
p2071
aVswimming
p2072
aVletters
p2073
aVmiscegenation
p2074
aVrochon
p2075
aVtorches
p2076
aVcompadre
p2077
aVmojorino
p2078
aVprivates
p2079
aVterminated
p2080
aVpairing
p2081
aVpeters
p2082
aVtylenol
p2083
aVheresy
p2084
aVindoctrinated
p2085
aVpoppins
p2086
aVrhythmic
p2087
aVmourned
p2088
aVyarns
p2089
aVmoonstruck
p2090
aVprogenitor
p2091
aVkanoby
p2092
aVjerkish
p2093
aVbagger
p2094
aVzaniness
p2095
aVtossed
p2096
aVevident
p2097
aVbloodline
p2098
aVlobotomise
p2099
aVcongresswoman
p2100
aVexcitement
p2101
aVplaced
p2102
aVmouseketeer
p2103
aVtosses
p2104
aVproblem
p2105
aVnurses
p2106
aVgungan
p2107
aVwalters
p2108
aVeffected
p2109
aVcompared
p2110
aVnonetheless
p2111
aVdeadly
p2112
aVpurproses
p2113
aVlately
p2114
aVcompares
p2115
aVdetails
p2116
aVbehold
p2117
aVvulgarize
p2118
aVillusion
p2119
aVponytail
p2120
aVrebelled
p2121
aVrepeat
p2122
aVswann
p2123
aVoutlets
p2124
aVallotting
p2125
aVimpregnating
p2126
aVtinier
p2127
aVnicest
p2128
aVtrunchbull
p2129
aVlaude
p2130
aVexposure
p2131
aVsearches
p2132
aVdisatisfaction
p2133
aVmishears
p2134
aVtorrid
p2135
aVcompete
p2136
aVlestat
p2137
aVvillainous
p2138
aVsearched
p2139
aVhumoring
p2140
aVgardens
p2141
aVhomerian
p2142
aVharrowingly
p2143
aVclamoring
p2144
aVmadsen
p2145
aVyikes
p2146
aVnursery
p2147
aVtenuous
p2148
aVhuffs
p2149
aVfedoore
p2150
aVrekindle
p2151
aVstinks
p2152
aVporno
p2153
aVlopped
p2154
aVstinky
p2155
aVneighbours
p2156
aVrapier
p2157
aVworth
p2158
aVporns
p2159
aValternating
p2160
aVamorous
p2161
aVcopasetic
p2162
aVdougnac
p2163
aVaurora
p2164
aVaurore
p2165
aVhelgenberger
p2166
aVrosalba
p2167
aVsummarized
p2168
aVsuccumbing
p2169
aVslimming
p2170
aVprogression
p2171
aVinvestigator
p2172
aVroadblock
p2173
aVsamurai
p2174
aVnotifying
p2175
aVupholds
p2176
aVmonologue
p2177
aVroldan
p2178
aVjamaica
p2179
aVsabbato
p2180
aVpescara
p2181
aVdepraved
p2182
aVnerdiest
p2183
aVmesmerising
p2184
aVrouen
p2185
aVgazon
p2186
aVmachines
p2187
aVstardom
p2188
aVbrancia
p2189
aVeuclidean
p2190
aVoffshoots
p2191
aVrockies
p2192
aVpetri
p2193
aVpetra
p2194
aVpersonifies
p2195
aVviewings
p2196
aVmenage
p2197
aVspunky
p2198
aVdilapidating
p2199
aVequals
p2200
aVmetaphorically
p2201
aVprotection
p2202
aVpersonified
p2203
aVdobie
p2204
aVobtained
p2205
aVwatermelons
p2206
aVfireballs
p2207
aVrebhorn
p2208
aVstressed
p2209
aVlonesome
p2210
aVpostponed
p2211
aVurbaniak
p2212
aVinflicting
p2213
aVvapors
p2214
aVlavatory
p2215
aVarchaeological
p2216
aVcompulsively
p2217
aVwiseacre
p2218
aVabsolution
p2219
aVsarah
p2220
aVdevastation
p2221
aVsweater
p2222
aVcoins
p2223
aVbundles
p2224
aVexacty
p2225
aVadministering
p2226
aVexacts
p2227
aVseparated
p2228
aVbombast
p2229
aVascribe
p2230
aVmathew
p2231
aVchampionships
p2232
aVseparates
p2233
aVunraveled
p2234
aVconditioned
p2235
aVhorks
p2236
aVblocking
p2237
aVpulitzer
p2238
aVscreenplays
p2239
aVdivorcee
p2240
aVoverpowers
p2241
aVcuddly
p2242
aVdivorces
p2243
aVkarras
p2244
aVelbow
p2245
aVgazarra
p2246
aVrecipes
p2247
aVscripting
p2248
aVhallie
p2249
aVindicated
p2250
aVquivering
p2251
aVflung
p2252
aVwinnfield
p2253
aVheartless
p2254
aVstrangelove
p2255
aVhyperdrive
p2256
aVrepressiveness
p2257
aVimpassive
p2258
aVconfidential
p2259
aVskyler
p2260
aVpoolman
p2261
aVprovide
p2262
aVrecovers
p2263
aVgrosbard
p2264
aVmoron
p2265
aVtitillate
p2266
aVtruthful
p2267
aVsordidness
p2268
aVladder
p2269
aVcustoms
p2270
aVmillimeter
p2271
aVbared
p2272
aVladden
p2273
aVdumbo
p2274
aVgreediness
p2275
aVfoundering
p2276
aVcomplacent
p2277
aVelusive
p2278
aVpadre
p2279
aValienate
p2280
aVschneider
p2281
aVappreciate
p2282
aVamericanization
p2283
aVpurging
p2284
aVbackwoods
p2285
aVjolting
p2286
aVdavies
p2287
aVmoroder
p2288
aVdroagon
p2289
aVpopsicle
p2290
aVscalding
p2291
aVundetected
p2292
aVmiming
p2293
aVinnovative
p2294
aVunderstates
p2295
aVchristie
p2296
aVtrager
p2297
aVproduction
p2298
aVunderstated
p2299
aVvalor
p2300
aVfleshed
p2301
aVcoffee
p2302
aVsoundbites
p2303
aVjerking
p2304
aVinhereit
p2305
aVcollide
p2306
aVlaconically
p2307
aVexpressionist
p2308
aVroommate
p2309
aVpenetration
p2310
aVexpressionism
p2311
aVcohagen
p2312
aVlifelong
p2313
aVcoffey
p2314
aVaneeka
p2315
aVpetrovsky
p2316
aVdefeaningly
p2317
aVdingo
p2318
aVreasonably
p2319
aVroutines
p2320
aVbartusiak
p2321
aVdingy
p2322
aVbottlecaps
p2323
aVreasonable
p2324
aVfearsomely
p2325
aVfeeds
p2326
aVvolcanos
p2327
aVcliquey
p2328
aVunfocused
p2329
aVdumping
p2330
aVmasseuse
p2331
aVmaniacs
p2332
aVchauvinistic
p2333
aVmaduro
p2334
aVdanforth
p2335
aVsockets
p2336
aVdaniel
p2337
aVbraces
p2338
aVuuuhhmmm
p2339
aVconfections
p2340
aVjudith
p2341
aVmullen
p2342
aVmeatier
p2343
aVbarrier
p2344
aVcolorless
p2345
aVleftovers
p2346
aVdashing
p2347
aVamadeus
p2348
aVforcibly
p2349
aVenlightened
p2350
aVlollipop
p2351
aVcertified
p2352
aVrenee
p2353
aVchortled
p2354
aVdammit
p2355
aVunexpressed
p2356
aVrefugee
p2357
aVleder
p2358
aVflawless
p2359
aVrenew
p2360
aVisuro
p2361
aVvanquish
p2362
aVfootsteps
p2363
aVrender
p2364
aVrailroads
p2365
aVimmolation
p2366
aVanother
p2367
aVantarctic
p2368
aVelectronic
p2369
aVillustrate
p2370
aVtimothy
p2371
aVparting
p2372
aVseduction
p2373
aVingen
p2374
aVapproximately
p2375
aVblurts
p2376
aVsuperweapons
p2377
aVfumble
p2378
aVcassavetes
p2379
aVlabyrinthian
p2380
aVpaltry
p2381
aVoffhand
p2382
aVwaster
p2383
aVwastes
p2384
aVscorpions
p2385
aVenmeshed
p2386
aVcereal
p2387
aVwasted
p2388
aVanachronisms
p2389
aVasssss
p2390
aVguild
p2391
aVguile
p2392
aVroelfs
p2393
aVguilt
p2394
aVhistorical
p2395
aVapparantly
p2396
aVtautness
p2397
aVrespecting
p2398
aVportraits
p2399
aVflavorful
p2400
aVenchanted
p2401
aVrefreshingly
p2402
aVcontents
p2403
aVpraising
p2404
aVscumbagginess
p2405
aVprehensile
p2406
aVconvenient
p2407
aVsaunder
p2408
aVhemingwayesque
p2409
aVsubjects
p2410
aVthundering
p2411
aVpilgrimage
p2412
aVenervation
p2413
aVgravy
p2414
aVgermann
p2415
aVbruce
p2416
aVhammond
p2417
aVgreenbaum
p2418
aVramblings
p2419
aVimmediacy
p2420
aVgermany
p2421
aVculminates
p2422
aVscripts
p2423
aVgrave
p2424
aVmacfadyen
p2425
aVbracken
p2426
aVdubarry
p2427
aVswamp
p2428
aVbracket
p2429
aVbrinkford
p2430
aVreserve
p2431
aVoverdoes
p2432
aVstephens
p2433
aVlewis
p2434
aVscatology
p2435
aVbellow
p2436
aVdisturbs
p2437
aValferd
p2438
aVcouncilmembers
p2439
aVcapitol
p2440
aVgeyser
p2441
aVpanned
p2442
aVnullifies
p2443
aVmurtaugh
p2444
aVpfarrer
p2445
aVnullified
p2446
aVrectangle
p2447
aVcappuccino
p2448
aVtramell
p2449
aVbelaboured
p2450
aVchaney
p2451
aVuncountable
p2452
aVwisecracks
p2453
aVhaunted
p2454
aVroundabout
p2455
aVdowntime
p2456
aVvividly
p2457
aVbeleive
p2458
aVreinvents
p2459
aVplotholia
p2460
aVrahad
p2461
aVgears
p2462
aVkrupa
p2463
aVpsychoanalysts
p2464
aVscrubbed
p2465
aVsecretary
p2466
aVturmoil
p2467
aVclaymation
p2468
aVzookeeper
p2469
aVhorrendous
p2470
aVdiscussions
p2471
aVchanneling
p2472
aVoptimum
p2473
aVhairbrush
p2474
aVtechniques
p2475
aVpastel
p2476
aVdraws
p2477
aVintroversion
p2478
aVsmoggy
p2479
aVpasted
p2480
aVimmeadiately
p2481
aVbracing
p2482
aVarcane
p2483
aVarcand
p2484
aVcooperation
p2485
aVdrawn
p2486
aVdrawl
p2487
aVencounters
p2488
aVshields
p2489
aVhuison
p2490
aVhandful
p2491
aVquirkyness
p2492
aVtransylvanians
p2493
aVdiesl
p2494
aVtaraji
p2495
aVwrestled
p2496
aVsuccumbs
p2497
aVtravellers
p2498
aVbeelzebub
p2499
aVnovalee
p2500
aVmugshots
p2501
aVkitchen
p2502
aVclimate
p2503
aVpsychologists
p2504
aVhijinx
p2505
aVhollywoodization
p2506
aVdisappears
p2507
aVupbeats
p2508
aVsobchak
p2509
aVmutations
p2510
aVcondescending
p2511
aVinfirm
p2512
aVtelecommunications
p2513
aVpriscilla
p2514
aVunsupportive
p2515
aVsuperpowers
p2516
aVattacked
p2517
aVexcite
p2518
aVpsychically
p2519
aVustinov
p2520
aVclairvoyant
p2521
aVgiacomo
p2522
aVtakaaki
p2523
aVthrash
p2524
aVcharacterizing
p2525
aVblackly
p2526
aVkrays
p2527
aVbeetles
p2528
aVpaglia
p2529
aVseparatist
p2530
aVtissue
p2531
aVvoges
p2532
aVmatewan
p2533
aVamount
p2534
aVwriterly
p2535
aValevey
p2536
aVsynch
p2537
aVimbues
p2538
aVconfection
p2539
aVwheel
p2540
aVsporty
p2541
aVquentin
p2542
aVcounterparts
p2543
aVbening
p2544
aVliberties
p2545
aVkerrigans
p2546
aVdivison
p2547
aVselfless
p2548
aVsonatine
p2549
aVwhereby
p2550
aVhumble
p2551
aVclient
p2552
aVhumbly
p2553
aVsullenly
p2554
aVmusical
p2555
aVpronouncements
p2556
aVuniquely
p2557
aVtraditions
p2558
aVnewton
p2559
aVthanks
p2560
aVsabbatical
p2561
aVprecipice
p2562
aVelectronically
p2563
aVdenton
p2564
aVdorff
p2565
aVcornell
p2566
aVsimilarities
p2567
aVmediator
p2568
aVwright
p2569
aVshout
p2570
aVcognac
p2571
aVrighteous
p2572
aVsiegfried
p2573
aVinsensitive
p2574
aVmindfuck
p2575
aVtricking
p2576
aVeverton
p2577
aVdesigners
p2578
aVunfounded
p2579
aVhairless
p2580
aVpackin
p2581
aVeroded
p2582
aVcooler
p2583
aVdeviance
p2584
aVpepto
p2585
aVsorvino
p2586
aVsparse
p2587
aVnight
p2588
aVanalyzing
p2589
aVrevisiting
p2590
aVcooled
p2591
aVdimitri
p2592
aVtenko
p2593
aVflatter
p2594
aVcloseups
p2595
aVchangwei
p2596
aVcouture
p2597
aVstardust
p2598
aVflatten
p2599
aVkieslowski
p2600
aVpugnacious
p2601
aVconfusing
p2602
aVadorably
p2603
aVcongratulate
p2604
aVjanitorial
p2605
aVasking
p2606
aVlahore
p2607
aVmelange
p2608
aVscholl
p2609
aVadorable
p2610
aVslapping
p2611
aVparticipation
p2612
aVmatthau
p2613
aVbiopic
p2614
aVsadie
p2615
aVelucidate
p2616
aVshogun
p2617
aVarchitectural
p2618
aVsubstitution
p2619
aVtossable
p2620
aVdeathless
p2621
aVferraris
p2622
aVgrotesquely
p2623
aVgentler
p2624
aVaffay
p2625
aVtizard
p2626
aVhoenicker
p2627
aVarditi
p2628
aVjacques
p2629
aVguiness
p2630
aVwarping
p2631
aVwasting
p2632
aVsparing
p2633
aVprofession
p2634
aVbeneficial
p2635
aVrendering
p2636
aVstumble
p2637
aVfamiliarize
p2638
aVhoodwink
p2639
aVdeception
p2640
aVconnote
p2641
aVoverblown
p2642
aVsalutory
p2643
aVobserable
p2644
aVberle
p2645
aVinfomercial
p2646
aVoverjoyed
p2647
aVdoogie
p2648
aVneedles
p2649
aVcatalyst
p2650
aVcrows
p2651
aVancestral
p2652
aVmaximum
p2653
aVinseminates
p2654
aVheartstrings
p2655
aVmaximus
p2656
aVfaking
p2657
aVprayed
p2658
aVragtag
p2659
aVrequest
p2660
aVstupendously
p2661
aVdostoevsky
p2662
aVguessed
p2663
aVexpertise
p2664
aVpotholes
p2665
aVprayer
p2666
aVempath
p2667
aVdubya
p2668
aVparalells
p2669
aVsenatorial
p2670
aVevasive
p2671
aVflintstones
p2672
aVdynasties
p2673
aVorlock
p2674
aVmulling
p2675
aVupdate
p2676
aVimprovisation
p2677
aVwalton
p2678
aVenthused
p2679
aVnotting
p2680
aVdetox
p2681
aVhudgeons
p2682
aVgheorghe
p2683
aVinterval
p2684
aVconcorde
p2685
aVcohesion
p2686
aVpileggi
p2687
aVaccolade
p2688
aVbanquets
p2689
aVgutting
p2690
aVnighshift
p2691
aVsongs
p2692
aVjabbar
p2693
aVconcept
p2694
aVsilverware
p2695
aVhorseback
p2696
aVsupplement
p2697
aVsynapses
p2698
aVbattle
p2699
aVlayers
p2700
aVzeroing
p2701
aVaristocratic
p2702
aVdissatisfied
p2703
aVquilty
p2704
aValana
p2705
aVextols
p2706
aVperiphery
p2707
aVautomobiles
p2708
aVairing
p2709
aVvisualized
p2710
aVflammable
p2711
aVmcconaughay
p2712
aVskulduggery
p2713
aVturns
p2714
aVpuppeteer
p2715
aVsoooo
p2716
aVevades
p2717
aVseague
p2718
aVconglomeration
p2719
aVtypcast
p2720
aVdetonated
p2721
aVpoledouris
p2722
aVagitate
p2723
aVpugilistic
p2724
aVpopulating
p2725
aVrapist
p2726
aVthicket
p2727
aVrecommeded
p2728
aVbarbie
p2729
aVrestfulness
p2730
aVrotunno
p2731
aVforegoing
p2732
aVshares
p2733
aVpeels
p2734
aVshared
p2735
aVgoldblum
p2736
aVcynically
p2737
aVparadoxical
p2738
aVbreakneck
p2739
aVhandyman
p2740
aVsparky
p2741
aVgiles
p2742
aVcaesella
p2743
aVteaches
p2744
aVteacher
p2745
aVmcfadden
p2746
aVsending
p2747
aVschwarztman
p2748
aVburdensome
p2749
aVbangs
p2750
aVfranklin
p2751
aVreagents
p2752
aVpillow
p2753
aVbangy
p2754
aVplotted
p2755
aVregardless
p2756
aVextra
p2757
aVsextet
p2758
aVcorruptor
p2759
aVuphill
p2760
aVsofty
p2761
aVmckenna
p2762
aVnauseating
p2763
aVfirearm
p2764
aVdisguising
p2765
aVbetsy
p2766
aVcohesiveness
p2767
aVcaptivate
p2768
aVsymbolizes
p2769
aVunctuous
p2770
aVcoalesce
p2771
aVwonderfully
p2772
aVsymbolized
p2773
aVintently
p2774
aVrainfall
p2775
aVabrams
p2776
aVimrie
p2777
aVnguyen
p2778
aVsanctimony
p2779
aVrelentlessy
p2780
aVbarcalow
p2781
aVwarchus
p2782
aVghidrah
p2783
aVdecked
p2784
aVdefeats
p2785
aVdmitri
p2786
aVdecker
p2787
aVintros
p2788
aVcommemorate
p2789
aVwoefully
p2790
aVdiddley
p2791
aVtrans
p2792
aVfracturing
p2793
aVgales
p2794
aVexclude
p2795
aVoccur
p2796
aVdiscussion
p2797
aVspreads
p2798
aVgiveaways
p2799
aVlounge
p2800
aVklumps
p2801
aVstrays
p2802
aVdeteriorate
p2803
aVarmies
p2804
aVproduct
p2805
aValger
p2806
aVpeerless
p2807
aVescalate
p2808
aVornery
p2809
aVdisgusted
p2810
aVhedley
p2811
aVproduce
p2812
aVthurgood
p2813
aVheterosexuals
p2814
aVdrastic
p2815
aVnoses
p2816
aVgrandson
p2817
aVtuptim
p2818
aVirwin
p2819
aVberets
p2820
aVamercian
p2821
aVnosed
p2822
aVdeconstruction
p2823
aVclarke
p2824
aVsuddeth
p2825
aVserving
p2826
aVtwitchy
p2827
aVbarnyard
p2828
aVledger
p2829
aVbrain
p2830
aVaffirms
p2831
aVstill
p2832
aVhampered
p2833
aVsillyness
p2834
aVsaxon
p2835
aVfactual
p2836
aVtiara
p2837
aVemigrants
p2838
aVcorrespondence
p2839
aVnorad
p2840
aVbroadsword
p2841
aVintroduce
p2842
aVadrenaline
p2843
aVwealthy
p2844
aVnot
p2845
aVgalloping
p2846
aVinversion
p2847
aVplacate
p2848
aVundermining
p2849
aVavocations
p2850
aVblockheaded
p2851
aVcannibalistic
p2852
aVhauff
p2853
aVraiser
p2854
aVunloaded
p2855
aVconsummated
p2856
aVgrouse
p2857
aVchallenged
p2858
aVhitmen
p2859
aVchallenges
p2860
aVchallenger
p2861
aVreplay
p2862
aVnaming
p2863
aVbuzzcocks
p2864
aVhaise
p2865
aVfunnest
p2866
aVfurthermore
p2867
aVsitters
p2868
aVthirst
p2869
aVwholeheartedly
p2870
aVpharoah
p2871
aVadvantaged
p2872
aVodoriferous
p2873
aVdivergence
p2874
aVpalotti
p2875
aVtrendily
p2876
aVadvantages
p2877
aVgaffe
p2878
aVdlose
p2879
aVappealingly
p2880
aVcycles
p2881
aVcontemplation
p2882
aVtransition
p2883
aVunsung
p2884
aVtavington
p2885
aVtangled
p2886
aVinvitation
p2887
aVziembicki
p2888
aVsipes
p2889
aValtitude
p2890
aVblind
p2891
aVromania
p2892
aVachingly
p2893
aVleguizimo
p2894
aVpantaeva
p2895
aVcapades
p2896
aVflipping
p2897
aVblink
p2898
aVtomorrow
p2899
aVlibidinous
p2900
aVbatinkoff
p2901
aVcaught
p2902
aVremotely
p2903
aVhummm
p2904
aVfreebie
p2905
aVdunces
p2906
aVmegalomaniac
p2907
aVsitations
p2908
aVbrainy
p2909
aVuninformed
p2910
aVpittsburgh
p2911
aVbrains
p2912
aVappreciates
p2913
aVappearence
p2914
aVjunkyard
p2915
aVsmirkingly
p2916
aVheretical
p2917
aVappreciated
p2918
aVgreenwood
p2919
aVprofessionals
p2920
aVunderwritten
p2921
aVrelocating
p2922
aVtransferred
p2923
aVshyamalan
p2924
aVvocals
p2925
aVcymbals
p2926
aVactioners
p2927
aVorwell
p2928
aVoverdosing
p2929
aVchinlund
p2930
aVwindsor
p2931
aVsnorting
p2932
aVhazardus
p2933
aVsockful
p2934
aVrenewing
p2935
aVequipment
p2936
aVespousing
p2937
aVmicrophage
p2938
aVshallows
p2939
aVattractiveness
p2940
aVneatly
p2941
aVintergalactic
p2942
aVimportantly
p2943
aVamerica
p2944
aVparlays
p2945
aVsaintliness
p2946
aVreform
p2947
aVimplications
p2948
aVpremiered
p2949
aVpremieres
p2950
aVgrizzled
p2951
aVsteadi
p2952
aVdiscoverer
p2953
aVunexpectantly
p2954
aVhairpin
p2955
aVdiscovered
p2956
aVteamed
p2957
aVperfekt
p2958
aVrenaldi
p2959
aVsnack
p2960
aVcollegue
p2961
aVadolf
p2962
aVblessedly
p2963
aVnicoletta
p2964
aVnicolette
p2965
aVembittered
p2966
aVpreternatural
p2967
aVenriched
p2968
aVchopin
p2969
aVstain
p2970
aVshrill
p2971
aVbruno
p2972
aVamateurs
p2973
aVgranddaddy
p2974
aVwardens
p2975
aVtruffaut
p2976
aVstroll
p2977
aVshakedown
p2978
aVmusetta
p2979
aVoctogenarian
p2980
aVosbourne
p2981
aVburst
p2982
aVincarcerated
p2983
aVchildbearings
p2984
aVactively
p2985
aVflirtatiously
p2986
aVshriker
p2987
aVsuspects
p2988
aVrozema
p2989
aVglaze
p2990
aVrollicking
p2991
aVthrillerism
p2992
aValtercation
p2993
aVunanimous
p2994
aVschuster
p2995
aVtranspose
p2996
aVregretful
p2997
aVsoldering
p2998
aVhurts
p2999
aVmarriageable
p3000
aVmoans
p3001
aVcatatonically
p3002
aVwarhol
p3003
aVyorick
p3004
aVresides
p3005
aVyammering
p3006
aVdowntrodden
p3007
aVsolving
p3008
aVmadness
p3009
aVforeboding
p3010
aVjeans
p3011
aVinexplicable
p3012
aVattachs
p3013
aVinexplicably
p3014
aVperpetrators
p3015
aVcharismatic
p3016
aVbrats
p3017
aVmuttered
p3018
aVundercuts
p3019
aVgynecomastia
p3020
aVmacnamara
p3021
aVtropical
p3022
aVdictator
p3023
aVpartisanship
p3024
aVodessa
p3025
aVstraying
p3026
aVmonsieur
p3027
aVfours
p3028
aVempathy
p3029
aVkurtzman
p3030
aVsuspected
p3031
aVwinks
p3032
aVoffbeat
p3033
aVimplacable
p3034
aVspungen
p3035
aVconcubines
p3036
aVmucus
p3037
aVinflatable
p3038
aVfigurines
p3039
aVstewardess
p3040
aVkorben
p3041
aVwaterway
p3042
aVmisanthropy
p3043
aVrisqu
p3044
aVdevelop
p3045
aVgediman
p3046
aVquagmire
p3047
aVcontortions
p3048
aVreprintable
p3049
aVenigmatical
p3050
aVmeteorological
p3051
aVgenuises
p3052
aVplops
p3053
aVnandita
p3054
aVcarhart
p3055
aVeventual
p3056
aVirresistable
p3057
aVbagpipes
p3058
aVsnarfed
p3059
aVguinevere
p3060
aVdemean
p3061
aValleviate
p3062
aVlivestock
p3063
aVbattleship
p3064
aVmoviestar
p3065
aVcompromising
p3066
aVmaternity
p3067
aVcrowns
p3068
aVrenewed
p3069
aVrescored
p3070
aVverse
p3071
aVserous
p3072
aVversa
p3073
aVkareem
p3074
aVstunk
p3075
aVonscreen
p3076
aVstung
p3077
aVkatana
p3078
aVgonna
p3079
aVearnest
p3080
aVpermanence
p3081
aVramshackle
p3082
aVstunt
p3083
aVambushes
p3084
aVfortune
p3085
aVheightened
p3086
aVcheerily
p3087
aVunrequited
p3088
aVconducts
p3089
aVyearnings
p3090
aVoutdoorsman
p3091
aVveering
p3092
aVoutput
p3093
aVtwelve
p3094
aVfalsehood
p3095
aVverbal
p3096
aVexposed
p3097
aVsentimentally
p3098
aVtragedies
p3099
aVexposes
p3100
aVdebello
p3101
aVzealously
p3102
aVwittliff
p3103
aVderisive
p3104
aVregina
p3105
aVmanipulator
p3106
aVunlocked
p3107
aVstandbys
p3108
aVbabysitter
p3109
aVgarret
p3110
aVguillaume
p3111
aVpropagating
p3112
aVsarandon
p3113
aVfractures
p3114
aVassembly
p3115
aVsenitmental
p3116
aVsixth
p3117
aVfrancie
p3118
aVaquit
p3119
aVinnocence
p3120
aVassemble
p3121
aVexciting
p3122
aVaphrodite
p3123
aVcreaking
p3124
aVjungian
p3125
aVpiety
p3126
aVbushido
p3127
aVcameraderie
p3128
aVideology
p3129
aVmugging
p3130
aVpalma
p3131
aVcarribean
p3132
aVbackup
p3133
aVbackus
p3134
aVfreeing
p3135
aVoutlook
p3136
aVcleaves
p3137
aVshrinking
p3138
aVintervention
p3139
aVstare
p3140
aVshags
p3141
aVqualifying
p3142
aVstark
p3143
aVstart
p3144
aVhammiest
p3145
aVreportage
p3146
aVstars
p3147
aVteamwork
p3148
aVallergic
p3149
aVhomeboys
p3150
aVlasseter
p3151
aVsmuggling
p3152
aVpitcher
p3153
aVpitches
p3154
aVphilosophers
p3155
aVmanipulative
p3156
aVrecouped
p3157
aVomelet
p3158
aVdomingo
p3159
aVpitched
p3160
aVhighness
p3161
aVfraud
p3162
aVillustrator
p3163
aVembedded
p3164
aVdefault
p3165
aVfreddy
p3166
aVwaltzing
p3167
aVintents
p3168
aVhumpalot
p3169
aVtransporters
p3170
aVmacbeth
p3171
aVtaghmaoui
p3172
aVstigmata
p3173
aVelmaloglou
p3174
aVimmobilise
p3175
aVinspections
p3176
aVcabinets
p3177
aVinfact
p3178
aVterminating
p3179
aVfools
p3180
aVforcing
p3181
aVtreks
p3182
aVdiaries
p3183
aVcazale
p3184
aVendeavors
p3185
aVwhistling
p3186
aVtitillating
p3187
aVsmooch
p3188
aVcored
p3189
aVmoonlight
p3190
aVcorey
p3191
aVsatirize
p3192
aVprying
p3193
aVoverseas
p3194
aVvadis
p3195
aVsemantic
p3196
aVguelph
p3197
aVceases
p3198
aVmonth
p3199
aVunrest
p3200
aVthoughtful
p3201
aVreligious
p3202
aVmonty
p3203
aVcorps
p3204
aVpledged
p3205
aVwyoming
p3206
aVdanielle
p3207
aVblanco
p3208
aVundiscernable
p3209
aVfountain
p3210
aVpledges
p3211
aVoleynik
p3212
aVdeedle
p3213
aVresounding
p3214
aVpatently
p3215
aVaugustin
p3216
aVhorror
p3217
aVcoloured
p3218
aVshamed
p3219
aVdecide
p3220
aVcrossan
p3221
aVmultihued
p3222
aVceaseless
p3223
aVsaboteur
p3224
aVthrobbing
p3225
aVlocomotive
p3226
aVrealisticly
p3227
aVdoofy
p3228
aVlulls
p3229
aVdussander
p3230
aVstreets
p3231
aVorgasm
p3232
aVneuromancer
p3233
aVheralds
p3234
aVbefriends
p3235
aVhamper
p3236
aVchuckle
p3237
aVcaprenter
p3238
aVdrill
p3239
aVexhilaratingly
p3240
aVinvesting
p3241
aVzealots
p3242
aVlurch
p3243
aVbernhard
p3244
aVlearned
p3245
aVkinsella
p3246
aVferocious
p3247
aVsabara
p3248
aVbitchin
p3249
aVtracks
p3250
aVbribes
p3251
aVexcess
p3252
aVeventful
p3253
aVarena
p3254
aVconviction
p3255
aVinspired
p3256
aVlosses
p3257
aVadvertising
p3258
aVcathy
p3259
aVsuccessors
p3260
aVinspires
p3261
aVmarginal
p3262
aVreturing
p3263
aVasexually
p3264
aVdispondent
p3265
aVseventeenth
p3266
aVconventional
p3267
aVnehru
p3268
aVladybugs
p3269
aVchaotic
p3270
aVepicenter
p3271
aVgaetan
p3272
aVcannibalism
p3273
aVlowering
p3274
aVpetrucelli
p3275
aVfairman
p3276
aVquickening
p3277
aVworkplaces
p3278
aVlazard
p3279
aVpretense
p3280
aVellicit
p3281
aVhotchner
p3282
aVgolberg
p3283
aVpollack
p3284
aVmccracken
p3285
aVpetaluma
p3286
aVbudgets
p3287
aVinfectuous
p3288
aVcasanova
p3289
aVtenets
p3290
aVrejuvenate
p3291
aVpublicist
p3292
aVbarzoon
p3293
aVphrase
p3294
aVcubism
p3295
aVicing
p3296
aVsheikh
p3297
aVcheering
p3298
aVutilize
p3299
aVsurpassed
p3300
aVsigourney
p3301
aVdismembering
p3302
aVbenzali
p3303
aVreject
p3304
aVsurpasses
p3305
aVschultz
p3306
aVmaltin
p3307
aVphillipie
p3308
aVcommunicating
p3309
aVwinnebago
p3310
aVauthoritive
p3311
aVcontinute
p3312
aVproductivity
p3313
aVhorizontal
p3314
aVcompulsory
p3315
aVdiabolically
p3316
aVcriticize
p3317
aVexcitment
p3318
aVanytime
p3319
aVsodomy
p3320
aVdaggers
p3321
aVroommates
p3322
aVchopsticks
p3323
aVaffirmations
p3324
aVrationality
p3325
aVzanetti
p3326
aVremnants
p3327
aVcasablanca
p3328
aVbruskotter
p3329
aVlovebirds
p3330
aVthermal
p3331
aVbooboos
p3332
aVclarinet
p3333
aVpicard
p3334
aVencoding
p3335
aVabsence
p3336
aVsystems
p3337
aVheros
p3338
aVfriendliest
p3339
aVcuriousity
p3340
aVcutie
p3341
aVpleads
p3342
aVcurtis
p3343
aVworthier
p3344
aVdietl
p3345
aVburkhart
p3346
aVmusker
p3347
aVstarbucks
p3348
aVstorywise
p3349
aVninja
p3350
aVpetter
p3351
aVburkhard
p3352
aVslighted
p3353
aVbryan
p3354
aVfaire
p3355
aVelder
p3356
aVdurden
p3357
aVpredators
p3358
aVfairy
p3359
aVobligated
p3360
aVlifestyles
p3361
aVpredatory
p3362
aVflashbacks
p3363
aVrestless
p3364
aVexasperated
p3365
aVballistics
p3366
aVmcgruder
p3367
aVabsurdity
p3368
aVanarchy
p3369
aVunsurpassed
p3370
aVmarcie
p3371
aVwedlock
p3372
aVmarcia
p3373
aVmalcontents
p3374
aVmidsection
p3375
aVjolly
p3376
aVcoincidences
p3377
aVsafety
p3378
aVunfailingly
p3379
aVearns
p3380
aVhoused
p3381
aVfavored
p3382
aVtoiling
p3383
aVhouser
p3384
aVhouses
p3385
aVjohnnie
p3386
aVhedaya
p3387
aVbrightest
p3388
aVstraightened
p3389
aVhapless
p3390
aVspeculation
p3391
aVdishwasher
p3392
aVunresolved
p3393
aVamericas
p3394
aVbenji
p3395
aVamerican
p3396
aVveloz
p3397
aVmatarazzo
p3398
aVapocalypse
p3399
aVdrooling
p3400
aVtakers
p3401
aVwatchdogs
p3402
aVmoritz
p3403
aVmorita
p3404
aVcraps
p3405
aVeffortless
p3406
aVintellectualism
p3407
aVvisions
p3408
aVequating
p3409
aVhorse
p3410
aVeightly
p3411
aVbakula
p3412
aVblossom
p3413
aVdryburgh
p3414
aVstation
p3415
aVseafaring
p3416
aVrefilmed
p3417
aVhundred
p3418
aVmerciless
p3419
aVoverstaying
p3420
aVtrapped
p3421
aVtrapper
p3422
aVboredom
p3423
aVrienfenstal
p3424
aVassaulted
p3425
aVmiseries
p3426
aVhesitating
p3427
aVswanbeck
p3428
aVrubbell
p3429
aVtoward
p3430
aVcomedically
p3431
aVcharlotte
p3432
aVphobia
p3433
aVcontraception
p3434
aVtypecasted
p3435
aVtearfully
p3436
aVorgana
p3437
aVrandomly
p3438
aVblissful
p3439
aVorgans
p3440
aVboorish
p3441
aVadrift
p3442
aVcherokee
p3443
aVvomitted
p3444
aVoffscreen
p3445
aVcaliber
p3446
aVhires
p3447
aVwallpaperer
p3448
aVhired
p3449
aVaires
p3450
aVcomparisons
p3451
aVunbeknownst
p3452
aVhypotheitically
p3453
aVraving
p3454
aVballyhoo
p3455
aVsturdy
p3456
aVmottled
p3457
aVrockefeller
p3458
aVhumbert
p3459
aVginty
p3460
aVvelocity
p3461
aVmckenney
p3462
aVphysics
p3463
aVtakashi
p3464
aVstalked
p3465
aVphenomenon
p3466
aVnetherworld
p3467
aVineffectuality
p3468
aVserialised
p3469
aVstalker
p3470
aVstores
p3471
aVkeital
p3472
aVheavens
p3473
aValbums
p3474
aVdistressing
p3475
aVjustice
p3476
aVindiglo
p3477
aVcriticising
p3478
aVrotterdam
p3479
aVtarkofsky
p3480
aVretorts
p3481
aVfinancing
p3482
aVstrut
p3483
aVfeels
p3484
aVharwich
p3485
aVpretending
p3486
aVcompeting
p3487
aVboils
p3488
aVimitating
p3489
aVbidets
p3490
aVadlib
p3491
aVeldard
p3492
aVboost
p3493
aVretaliation
p3494
aVstored
p3495
aVforster
p3496
aVhowled
p3497
aVpatriotism
p3498
aVlocale
p3499
aVculture
p3500
aVhowler
p3501
aVportrait
p3502
aVgouda
p3503
aVlocals
p3504
aVtermites
p3505
aVcolonialists
p3506
aVbreakups
p3507
aVpictures
p3508
aVtolls
p3509
aVmonroth
p3510
aVhonour
p3511
aVwether
p3512
aVpictured
p3513
aVzippel
p3514
aVmissing
p3515
aVzipped
p3516
aVspray
p3517
aVranked
p3518
aVfluently
p3519
aVzipper
p3520
aVabruptly
p3521
aVleague
p3522
aVcollaborators
p3523
aVcashing
p3524
aVchastising
p3525
aVrehired
p3526
aVcanadians
p3527
aVhippest
p3528
aVvault
p3529
aVaudiotapes
p3530
aVexperimental
p3531
aVcoifed
p3532
aVunderseen
p3533
aVexpendable
p3534
aVffing
p3535
aVunfolded
p3536
aVjitterish
p3537
aVcelluloid
p3538
aVirresponsibility
p3539
aVthreated
p3540
aVthreaten
p3541
aVtestings
p3542
aVempty
p3543
aVgreenlighted
p3544
aVlived
p3545
aVliven
p3546
aVatmospherically
p3547
aVmodelling
p3548
aVlives
p3549
aVplaythings
p3550
aVfurrow
p3551
aVintriguing
p3552
aVariyan
p3553
aVunconvincingly
p3554
aVwyatt
p3555
aVexuding
p3556
aVaccidently
p3557
aVreformed
p3558
aVguido
p3559
aVsytable
p3560
aVrichter
p3561
aVhooters
p3562
aVbeatng
p3563
aVsmacked
p3564
aVcostly
p3565
aVpornos
p3566
aVembroidered
p3567
aVbrauva
p3568
aVmerienbad
p3569
aVqueue
p3570
aVgrant
p3571
aVmakeshift
p3572
aVvulnerable
p3573
aVgrand
p3574
aVirregulars
p3575
aVcomposition
p3576
aVaddams
p3577
aVfatty
p3578
aVrhames
p3579
aVbanter
p3580
aVblair
p3581
aVyoungsters
p3582
aVvitriol
p3583
aVgravesite
p3584
aVobviously
p3585
aVsakari
p3586
aVsynopsis
p3587
aVcalibrated
p3588
aVchainsaws
p3589
aVraimi
p3590
aVhenna
p3591
aVexploits
p3592
aVbearer
p3593
aVmembrance
p3594
aVmasahitko
p3595
aVtransference
p3596
aVtechnicians
p3597
aVreviewed
p3598
aVdevastatingly
p3599
aVreviewer
p3600
aVinformal
p3601
aVnikki
p3602
aVsunhill
p3603
aVshortcut
p3604
aVjerod
p3605
aVquestioned
p3606
aVluhrmann
p3607
aVuseless
p3608
aVshowing
p3609
aVoutsmarts
p3610
aVrudner
p3611
aVdearly
p3612
aVcinemascope
p3613
aVparodizing
p3614
aVvests
p3615
aVexcluding
p3616
aVbaseness
p3617
aVenvisioned
p3618
aVoncoming
p3619
aValtough
p3620
aVpopular
p3621
aVsoftness
p3622
aVsnappiness
p3623
aVbelabors
p3624
aVsketch
p3625
aVfraker
p3626
aVneumann
p3627
aVconey
p3628
aVeconomic
p3629
aVcallousness
p3630
aVgracie
p3631
aVcrewmates
p3632
aVdilapidated
p3633
aVspouting
p3634
aVfrauds
p3635
aVcompetitions
p3636
aVconfounds
p3637
aVsimmer
p3638
aVsleezebag
p3639
aVsquirrel
p3640
aVanecdotes
p3641
aVbenefactor
p3642
aVopposes
p3643
aVmerrick
p3644
aVassists
p3645
aVviewpoints
p3646
aVnegatives
p3647
aVarizonians
p3648
aVsmothered
p3649
aVflake
p3650
aVwhazoo
p3651
aVarmand
p3652
aVsilence
p3653
aVhounding
p3654
aVmultiplots
p3655
aVdiametrically
p3656
aVmaudit
p3657
aValison
p3658
aVreworked
p3659
aVunown
p3660
aVinfuriating
p3661
aVtrendsetters
p3662
aVmurrieta
p3663
aVplacing
p3664
aVvisas
p3665
aVdukas
p3666
aVaftertaste
p3667
aVweightiness
p3668
aVtobey
p3669
aVwithholding
p3670
aVmasturbation
p3671
aVcomanding
p3672
aVtragically
p3673
aVinjection
p3674
aVsexualized
p3675
aVdrifters
p3676
aVtheoretical
p3677
aVpolitic
p3678
aVdarlanne
p3679
aVsimilar
p3680
aVhesitantly
p3681
aVordered
p3682
aVaccessibility
p3683
aVwinterbottom
p3684
aVevocative
p3685
aVsagemiller
p3686
aVsurmise
p3687
aVancestors
p3688
aVamounts
p3689
aVcreeper
p3690
aVfears
p3691
aVapplication
p3692
aVdepartment
p3693
aVmanhattan
p3694
aVeerily
p3695
aVcreeped
p3696
aVsmiles
p3697
aVvenerable
p3698
aVsmiley
p3699
aVafterglow
p3700
aVgraphically
p3701
aVsmiled
p3702
aVaesthetically
p3703
aVcorrelated
p3704
aVcomplicating
p3705
aVresolving
p3706
aVorbit
p3707
aVutilised
p3708
aVcorrelates
p3709
aVbribe
p3710
aVredundantly
p3711
aVunderrated
p3712
aVjurgen
p3713
aVjittering
p3714
aVghibli
p3715
aVegomania
p3716
aVcompact
p3717
aVbarnett
p3718
aVfriendly
p3719
aVmasked
p3720
aVchrichton
p3721
aVcmaeron
p3722
aVprydain
p3723
aVrenoir
p3724
aVfelicity
p3725
aVrattling
p3726
aVtelling
p3727
aVyourselves
p3728
aVtenet
p3729
aVnausea
p3730
aValanis
p3731
aVsublimely
p3732
aVmeticulously
p3733
aVpositions
p3734
aVconstitution
p3735
aVcompassionate
p3736
aVmichael
p3737
aVwatered
p3738
aVrattigan
p3739
aVsprouse
p3740
aVenforce
p3741
aVpepper
p3742
aVredone
p3743
aVmuffs
p3744
aVsultans
p3745
aVnotwithstanding
p3746
aVvampira
p3747
aVvampire
p3748
aVconning
p3749
aVcassie
p3750
aVupsetting
p3751
aVkidnapper
p3752
aVradicals
p3753
aVbrunet
p3754
aVkidnapped
p3755
aVconvert
p3756
aVreoccurring
p3757
aVavaricious
p3758
aVclubish
p3759
aVsalvation
p3760
aVexorbitance
p3761
aVforesee
p3762
aVtransformations
p3763
aVclark
p3764
aVclare
p3765
aVmanage
p3766
aVclara
p3767
aVreprimands
p3768
aVbuildup
p3769
aVkraftwerk
p3770
aVhandfuls
p3771
aVmatchsticks
p3772
aVaalyah
p3773
aVcamera
p3774
aVdevotedly
p3775
aVpinnochio
p3776
aVhistorically
p3777
aVformally
p3778
aVquicksand
p3779
aVvisibility
p3780
aVcharming
p3781
aVrivalry
p3782
aVappointed
p3783
aVconsort
p3784
aVlapse
p3785
aVmatzo
p3786
aVanimted
p3787
aVshelton
p3788
aVantionio
p3789
aVphantastic
p3790
aVunveiled
p3791
aVlinks
p3792
aVrisque
p3793
aVpulling
p3794
aVblaine
p3795
aVsought
p3796
aVdevouring
p3797
aVhypnotize
p3798
aVorson
p3799
aVpicturesque
p3800
aVslumming
p3801
aVrohmer
p3802
aVmclachlan
p3803
aVstockard
p3804
aVsentiments
p3805
aVmcnaughton
p3806
aVtalal
p3807
aVinstinctively
p3808
aVembellished
p3809
aVoutdid
p3810
aVrestrict
p3811
aVronald
p3812
aVsavoy
p3813
aVdalliances
p3814
aValibis
p3815
aVoogie
p3816
aVintroduced
p3817
aVsigel
p3818
aVscoop
p3819
aVprays
p3820
aVencyclopedia
p3821
aVdesensitized
p3822
aVfavourites
p3823
aVsigmoid
p3824
aVgoodniks
p3825
aVcruder
p3826
aVgunman
p3827
aVcostume
p3828
aVreferencing
p3829
aVsocky
p3830
aVappelation
p3831
aVhirschfeld
p3832
aVtemporal
p3833
aVhanson
p3834
aVgymnasts
p3835
aVpreexisting
p3836
aVfrontal
p3837
aVstout
p3838
aVeckhart
p3839
aVkilometres
p3840
aVuniversity
p3841
aVboringly
p3842
aVslide
p3843
aVfirings
p3844
aVfrickin
p3845
aVprevailing
p3846
aVankles
p3847
aVpursuits
p3848
aVconstitute
p3849
aVsupermodel
p3850
aVinvestigative
p3851
aVnegin
p3852
aVseparating
p3853
aVtransitions
p3854
aVspecial
p3855
aVbutch
p3856
aVobliterates
p3857
aVkilrathi
p3858
aVbraxton
p3859
aVmcmahon
p3860
aVlittered
p3861
aVarmor
p3862
aVtreville
p3863
aVgranddaughters
p3864
aVobsessive
p3865
aVgalaxies
p3866
aVdelegates
p3867
aVdarkly
p3868
aVamato
p3869
aVimprovisational
p3870
aVsneer
p3871
aVridge
p3872
aVtimex
p3873
aVdetermining
p3874
aVlaxative
p3875
aVtimer
p3876
aVtimes
p3877
aVconfrontations
p3878
aVprojectile
p3879
aVtimed
p3880
aVhumphrey
p3881
aVoutrunning
p3882
aVmaddened
p3883
aVhendren
p3884
aVscanning
p3885
aVconfuse
p3886
aVcramp
p3887
aVbitch
p3888
aVrosaleen
p3889
aVtinkering
p3890
aVbacktrack
p3891
aVwrapper
p3892
aVlifetimes
p3893
aVwrapped
p3894
aVcorona
p3895
aVharmon
p3896
aVnastiest
p3897
aVstuntwork
p3898
aVrecants
p3899
aVcraziest
p3900
aVoutboard
p3901
aVwazoo
p3902
aVinnovate
p3903
aVchemicals
p3904
aVcryptically
p3905
aVtatopolous
p3906
aVsubgenre
p3907
aVnewlywed
p3908
aVhines
p3909
aVcatered
p3910
aVcharacterizations
p3911
aVthrashing
p3912
aVsidetracked
p3913
aVsubmitted
p3914
aVtouted
p3915
aVsuccinctly
p3916
aVcaterer
p3917
aVamidala
p3918
aVexfoliating
p3919
aVtrashiest
p3920
aVjulian
p3921
aVhorrors
p3922
aVenforcer
p3923
aVenforces
p3924
aVearful
p3925
aVmetaphysics
p3926
aVbastard
p3927
aVpsychodramas
p3928
aVinhabiting
p3929
aVbladed
p3930
aVpushups
p3931
aVbattles
p3932
aVbattler
p3933
aVrelatives
p3934
aVjaunt
p3935
aVgrounding
p3936
aVbattled
p3937
aVblades
p3938
aVvenereal
p3939
aVschwarzbaum
p3940
aVduels
p3941
aVveronique
p3942
aVvengeance
p3943
aVcounterbalance
p3944
aVintrinsic
p3945
aVjurek
p3946
aVmisadvertised
p3947
aVlandscaping
p3948
aVoverhearing
p3949
aVastonishing
p3950
aVskunk
p3951
aVpenleric
p3952
aVredheads
p3953
aVtolkien
p3954
aVtelepathically
p3955
aVhalting
p3956
aVdiametric
p3957
aVunderdevelopment
p3958
aVobsequious
p3959
aVunfinished
p3960
aVsheriff
p3961
aVcicely
p3962
aVnitrous
p3963
aVbrighten
p3964
aVreceptors
p3965
aVprotgaonist
p3966
aVhector
p3967
aVcameos
p3968
aVinherited
p3969
aVinseperable
p3970
aVachieve
p3971
aVshyster
p3972
aVscintillating
p3973
aVtrucks
p3974
aVcoaxes
p3975
aVimperious
p3976
aVyearn
p3977
aVtuned
p3978
aVartagnon
p3979
aVtunes
p3980
aVwidow
p3981
aValbania
p3982
aVshrouded
p3983
aVcanine
p3984
aVoperates
p3985
aVofficials
p3986
aVoperated
p3987
aVmironoff
p3988
aVnightmare
p3989
aVillusory
p3990
aVsouthward
p3991
aVdundee
p3992
aVgraceful
p3993
aVhummana
p3994
aVantler
p3995
aVbandmate
p3996
aVjoanou
p3997
aVsupernova
p3998
aVhummer
p3999
aVinterfere
p4000
aVkicking
p4001
aVmerry
p4002
aVthade
p4003
aVinundate
p4004
aVsniff
p4005
aVlimits
p4006
aVmonstrously
p4007
aVstrains
p4008
aVrevitalized
p4009
aVbellboy
p4010
aVestimation
p4011
aVdiplomats
p4012
aVtuesday
p4013
aVparanormal
p4014
aVinspite
p4015
aVerased
p4016
aVaccomplishing
p4017
aVoutlaws
p4018
aVimmense
p4019
aVliberals
p4020
aVroomate
p4021
aVposthlewaite
p4022
aVeraser
p4023
aVheigh
p4024
aVtroopers
p4025
aVheigl
p4026
aVshoulders
p4027
aVcontrolled
p4028
aVretrospective
p4029
aVguerrillas
p4030
aVcontroller
p4031
aVabortions
p4032
aVunamusing
p4033
aVsmoking
p4034
aVflatulating
p4035
aVdynamism
p4036
aVadulterer
p4037
aVexamines
p4038
aVexaminer
p4039
aVevelyn
p4040
aVsurface
p4041
aVsimone
p4042
aVexamined
p4043
aVhearted
p4044
aVcommentators
p4045
aVgoodfellas
p4046
aVmcginley
p4047
aVautism
p4048
aVparts
p4049
aVspeaker
p4050
aVnorthwest
p4051
aVklugman
p4052
aVparty
p4053
aVimpeccably
p4054
aVunappealing
p4055
aVimpeccable
p4056
aVsteals
p4057
aVdestruction
p4058
aVscarcely
p4059
aVashley
p4060
aVplacating
p4061
aVdharma
p4062
aVinsurmountable
p4063
aVmontages
p4064
aVdressed
p4065
aVashlee
p4066
aVfactness
p4067
aVstagelights
p4068
aVwarlord
p4069
aVadvertiser
p4070
aVdiscord
p4071
aVincreasingly
p4072
aVsofia
p4073
aVweekend
p4074
aVbatters
p4075
aVbondian
p4076
aVdistant
p4077
aVadvertised
p4078
aVfemme
p4079
aVliken
p4080
aVnarcolepsy
p4081
aVmiramax
p4082
aVmorgue
p4083
aVballoons
p4084
aVashman
p4085
aVdisappearance
p4086
aVpropelled
p4087
aVbefriending
p4088
aVbottoms
p4089
aVkeely
p4090
aVintersection
p4091
aVlincoln
p4092
aVfernanda
p4093
aVnecessary
p4094
aVsomersets
p4095
aVfernando
p4096
aVdisallows
p4097
aVgangsters
p4098
aVpayments
p4099
aVtrucked
p4100
aVrevisits
p4101
aVglare
p4102
aVschmaltzfest
p4103
aVlibrary
p4104
aVleers
p4105
aVtrucker
p4106
aVleery
p4107
aVscales
p4108
aVarmour
p4109
aVpinpoint
p4110
aVoverlay
p4111
aVsteaming
p4112
aVbroad
p4113
aVobjected
p4114
aVgrinding
p4115
aVcradle
p4116
aVmutation
p4117
aVwendy
p4118
aVsweepstakes
p4119
aVwendt
p4120
aVfanny
p4121
aVdemonstrated
p4122
aVlimitations
p4123
aVreaching
p4124
aVclutterbuck
p4125
aVhurls
p4126
aVpulpy
p4127
aVrefuge
p4128
aVblythe
p4129
aVnightclub
p4130
aVmaladjustment
p4131
aVpistols
p4132
aVcarolyn
p4133
aVpreviously
p4134
aVdumfounded
p4135
aVdraggy
p4136
aVrestatement
p4137
aVpervious
p4138
aVpointless
p4139
aVhmmmmm
p4140
aVadditional
p4141
aVthirteeth
p4142
aVproclamations
p4143
aVnorth
p4144
aVunconcious
p4145
aVterrrible
p4146
aVtriangular
p4147
aVblaming
p4148
aVsquirmy
p4149
aVwince
p4150
aVsprinkling
p4151
aVhighest
p4152
aVminutely
p4153
aVkahlberg
p4154
aVfeelgood
p4155
aVrumba
p4156
aVsuggestively
p4157
aVdisplay
p4158
aVurging
p4159
aVmarketplace
p4160
aVuniversal
p4161
aVlinearity
p4162
aVcompromises
p4163
aVexceptionaly
p4164
aVbeats
p4165
aVjudgemental
p4166
aVkissed
p4167
aVfunctions
p4168
aVslaughterhouse
p4169
aVstarbuck
p4170
aVpropositioned
p4171
aVpresaged
p4172
aVspellbinding
p4173
aVtrepidations
p4174
aVgesserits
p4175
aVfinch
p4176
aVblunders
p4177
aVtraditionalist
p4178
aVbackstage
p4179
aVadditionally
p4180
aVphosphorus
p4181
aVshuns
p4182
aVparole
p4183
aVatheist
p4184
aVlughnasa
p4185
aVatheism
p4186
aVinterrogative
p4187
aVwatercolors
p4188
aVchiming
p4189
aVforeshadowing
p4190
aVindirectly
p4191
aVargentinian
p4192
aVaided
p4193
aVgester
p4194
aVplagiarisms
p4195
aVfolklore
p4196
aVunsheathes
p4197
aVwhoops
p4198
aVseidler
p4199
aVwhoopi
p4200
aVknell
p4201
aVperverted
p4202
aVaides
p4203
aVrenfro
p4204
aVschmuck
p4205
aVunfeeling
p4206
aVbuddy
p4207
aVtremors
p4208
aVglitteratti
p4209
aVdisability
p4210
aVnanobombs
p4211
aVkidman
p4212
aVrecycle
p4213
aVsorry
p4214
aVfists
p4215
aVcollaborate
p4216
aVatrice
p4217
aVbarenboim
p4218
aVconfederate
p4219
aVoverplay
p4220
aVglencoe
p4221
aVunexceptional
p4222
aVcrops
p4223
aVherbert
p4224
aVunrelated
p4225
aVtrannsferred
p4226
aVenhance
p4227
aVunifying
p4228
aVdeplorable
p4229
aVprescence
p4230
aVfalco
p4231
aVwhirlwind
p4232
aVlandlords
p4233
aVclearillusions
p4234
aVgeekiest
p4235
aVscoopfuls
p4236
aVlikely
p4237
aVhuffing
p4238
aVtangential
p4239
aVsubordinate
p4240
aVkidnap
p4241
aVjordon
p4242
aVghandi
p4243
aVspokesman
p4244
aVlapsing
p4245
aVfoodstuffs
p4246
aVaborginal
p4247
aVhelmets
p4248
aVniche
p4249
aVdisposable
p4250
aVweirdly
p4251
aVboyum
p4252
aVmunson
p4253
aVrheinhold
p4254
aVpaquin
p4255
aVsalvageable
p4256
aVoozes
p4257
aVleland
p4258
aVoozed
p4259
aVchrysler
p4260
aVlucrative
p4261
aVrafting
p4262
aVintrigue
p4263
aVjoshua
p4264
aVfantastic
p4265
aVheeled
p4266
aVfacepaint
p4267
aVslices
p4268
aVlatifah
p4269
aVobjectively
p4270
aVsliced
p4271
aVmisfortunes
p4272
aVguests
p4273
aVjackets
p4274
aVcaerthan
p4275
aVtutelage
p4276
aVtertiary
p4277
aVrohde
p4278
aVspaniards
p4279
aVvoters
p4280
aVlightsaber
p4281
aVrobertson
p4282
aVmckinney
p4283
aVmailheart
p4284
aVschroeder
p4285
aVschrader
p4286
aVunder
p4287
aVmutant
p4288
aVdogma
p4289
aVberlin
p4290
aVdogme
p4291
aVdefecated
p4292
aVtrots
p4293
aVmovies
p4294
aVexploitative
p4295
aVmoview
p4296
aVexceptions
p4297
aVrochefort
p4298
aVclimax
p4299
aVstressing
p4300
aVdownsides
p4301
aVfoods
p4302
aVsidequel
p4303
aVperformace
p4304
aVcushing
p4305
aVloathe
p4306
aVautonomy
p4307
aVtitular
p4308
aVelicited
p4309
aVamazing
p4310
aVgordon
p4311
aVchaja
p4312
aVblanks
p4313
aVbelievers
p4314
aVmanuals
p4315
aVvicious
p4316
aVschoolchildren
p4317
aVlifesaving
p4318
aVthird
p4319
aVdescends
p4320
aVfictitious
p4321
aVgoodbye
p4322
aVmeekness
p4323
aVoperate
p4324
aVathletes
p4325
aVmacks
p4326
aVbombshells
p4327
aVbendrix
p4328
aVinconclusive
p4329
aVdrumlin
p4330
aVmumbo
p4331
aVfable
p4332
aVfellas
p4333
aVbudding
p4334
aVwindshield
p4335
aVbefore
p4336
aVshawnee
p4337
aVpersonal
p4338
aValluringly
p4339
aVsprays
p4340
aVpersonas
p4341
aVchatty
p4342
aVschmidt
p4343
aVconfidently
p4344
aVgunning
p4345
aVcombination
p4346
aVmarsters
p4347
aVrunny
p4348
aVglazer
p4349
aVcaterpillar
p4350
aVglazed
p4351
aVimprisoning
p4352
aVdownright
p4353
aVastor
p4354
aVsoylent
p4355
aVleonor
p4356
aVarrested
p4357
aVmarcelli
p4358
aVsuperficiality
p4359
aVmccall
p4360
aVharried
p4361
aVlofty
p4362
aVcalmly
p4363
aVbarletta
p4364
aVallyson
p4365
aVpostapocalyptic
p4366
aVskins
p4367
aVtrading
p4368
aVforgot
p4369
aVreceptions
p4370
aVcomedies
p4371
aVmerchants
p4372
aVhypnotherapist
p4373
aVoppressors
p4374
aVmandy
p4375
aVlurks
p4376
aVaffords
p4377
aVwaaaaay
p4378
aVcorman
p4379
aVprojectionist
p4380
aVresume
p4381
aVtransitory
p4382
aVbarracks
p4383
aVunselfconsciously
p4384
aVlensky
p4385
aVtabasco
p4386
aVchortle
p4387
aVharrier
p4388
aVcosmic
p4389
aVpunctuated
p4390
aVleila
p4391
aVpunctuates
p4392
aVpreludes
p4393
aVenraged
p4394
aVduplicitous
p4395
aVfictions
p4396
aVmctiernan
p4397
aVkaela
p4398
aVoracles
p4399
aVcityscape
p4400
aVfloors
p4401
aVstoolie
p4402
aVdownside
p4403
aVenrages
p4404
aVunpopped
p4405
aVimmensely
p4406
aVintercut
p4407
aVmisusing
p4408
aVhawks
p4409
aVshiver
p4410
aVgarry
p4411
aVburgess
p4412
aVgandolfini
p4413
aVhawke
p4414
aVshallowness
p4415
aVkennedyesque
p4416
aVchronicled
p4417
aVrequisite
p4418
aVbegins
p4419
aVhomogenized
p4420
aVdawkins
p4421
aVevaporates
p4422
aVpicketers
p4423
aVtownspeople
p4424
aVknights
p4425
aVevaporated
p4426
aVpoland
p4427
aVjeopardise
p4428
aVpalace
p4429
aVpruit
p4430
aVrattle
p4431
aVhanania
p4432
aVginger
p4433
aVtelly
p4434
aVprerecorded
p4435
aVsquaresoft
p4436
aVtells
p4437
aVcrimefighters
p4438
aVgabriela
p4439
aVcommunicative
p4440
aVforebearing
p4441
aVfitting
p4442
aVmusketeers
p4443
aVsleeper
p4444
aVworsening
p4445
aVquarterback
p4446
aVulrich
p4447
aVbratiness
p4448
aVclapton
p4449
aVllamas
p4450
aVoverplayed
p4451
aVpanel
p4452
aVmarin
p4453
aVmario
p4454
aVmarie
p4455
aVkorsmo
p4456
aVmaria
p4457
aVobservation
p4458
aVimpostor
p4459
aVbreathes
p4460
aVbreather
p4461
aVenvisions
p4462
aVcompetitors
p4463
aVhamming
p4464
aVbreathed
p4465
aVauthoritatively
p4466
aVmildred
p4467
aVkristel
p4468
aVkristen
p4469
aVcommemorating
p4470
aVsprocket
p4471
aVimplodes
p4472
aVlobsters
p4473
aVkruger
p4474
aVimplying
p4475
aVbeaudene
p4476
aVliberty
p4477
aVimploded
p4478
aVbrrrrrrrrr
p4479
aVcumberland
p4480
aVflatulent
p4481
aVbookish
p4482
aVjailer
p4483
aVbiner
p4484
aVlennie
p4485
aVmaryann
p4486
aVgangsta
p4487
aVjailed
p4488
aVpalliative
p4489
aVextraterrestrials
p4490
aVteenth
p4491
aVszubanski
p4492
aVappetizer
p4493
aVliberto
p4494
aVchristopher
p4495
aVtalkies
p4496
aVsaturn
p4497
aVruber
p4498
aVstooges
p4499
aVreload
p4500
aVmonumental
p4501
aVtroop
p4502
aVhandwaving
p4503
aVenchant
p4504
aVterminology
p4505
aVhumanly
p4506
aVimitate
p4507
aVtesting
p4508
aValterations
p4509
aVcaulfield
p4510
aVallure
p4511
aVinterruptions
p4512
aVsofthearted
p4513
aVincorporating
p4514
aVnielson
p4515
aVnarrated
p4516
aVartificial
p4517
aVorgasmic
p4518
aVnarrates
p4519
aVbloodstains
p4520
aVinsinuated
p4521
aVwears
p4522
aVfeisty
p4523
aVphysicist
p4524
aVweary
p4525
aVvernon
p4526
aVmotta
p4527
aVinsinuates
p4528
aVcousin
p4529
aVmotto
p4530
aVsuggested
p4531
aVjurrasic
p4532
aVcivilised
p4533
aVresistant
p4534
aVuncertainty
p4535
aVrussia
p4536
aVfondest
p4537
aVsplein
p4538
aVbeeline
p4539
aVthermia
p4540
aVeruting
p4541
aVbison
p4542
aVpresumably
p4543
aVcineplex
p4544
aVquint
p4545
aVburies
p4546
aVincessant
p4547
aVquinn
p4548
aVdrilled
p4549
aVpresumable
p4550
aVtsugawa
p4551
aVcopycat
p4552
aVbasis
p4553
aVretrospectives
p4554
aVtattoos
p4555
aVparsley
p4556
aVlovell
p4557
aVcyrus
p4558
aVoooooo
p4559
aVcommission
p4560
aVtrigger
p4561
aVdetrimental
p4562
aVinterest
p4563
aVbasic
p4564
aVbasil
p4565
aVprudish
p4566
aVentered
p4567
aVlovely
p4568
aVakroyd
p4569
aVtoller
p4570
aVdeeper
p4571
aVdismiss
p4572
aVsooooo
p4573
aVshattering
p4574
aVloudmouthed
p4575
aVgarofolo
p4576
aVscrubbers
p4577
aVnailbiter
p4578
aVunintended
p4579
aVlionel
p4580
aVharshness
p4581
aVunpopular
p4582
aVscotsman
p4583
aVvendetta
p4584
aVluggage
p4585
aVspontaneously
p4586
aVceilings
p4587
aVassness
p4588
aVpessimistic
p4589
aVseven
p4590
aVridicule
p4591
aVszabo
p4592
aVrecuperate
p4593
aVlugubrious
p4594
aVinscrutable
p4595
aVlasser
p4596
aVdisappear
p4597
aVwaging
p4598
aVradiator
p4599
aVfatherless
p4600
aVrealizing
p4601
aVdebuted
p4602
aVshoveling
p4603
aVunweaves
p4604
aVvaulerble
p4605
aVevolve
p4606
aVbearded
p4607
aVmurkily
p4608
aVopulent
p4609
aVrenaissance
p4610
aVregurgitation
p4611
aVtretiak
p4612
aVsteig
p4613
aVweakly
p4614
aVprograms
p4615
aVoutgrossed
p4616
aVfailing
p4617
aVinherit
p4618
aVreese
p4619
aVcoliseum
p4620
aVperceptiveness
p4621
aVflops
p4622
aVyours
p4623
aVmitchum
p4624
aVmarcy
p4625
aVetiquette
p4626
aVkinky
p4627
aVdonadio
p4628
aVkinks
p4629
aVassigned
p4630
aVfighters
p4631
aVcretin
p4632
aVperfomances
p4633
aVkinka
p4634
aVnudge
p4635
aVboinked
p4636
aVroyal
p4637
aVintends
p4638
aVjules
p4639
aVinefficiencies
p4640
aVcontestant
p4641
aVtrimming
p4642
aVmcdormand
p4643
aVboasted
p4644
aVinvoluntary
p4645
aVrathbone
p4646
aVlitefoot
p4647
aVsupervisors
p4648
aVdiscreet
p4649
aVborgnine
p4650
aVadlai
p4651
aVforedoomed
p4652
aVzombies
p4653
aVsignal
p4654
aVcowardice
p4655
aVauteurs
p4656
aVtheorists
p4657
aVsquander
p4658
aVshuttles
p4659
aVbookseller
p4660
aVmaxim
p4661
aVelderly
p4662
aVdonny
p4663
aVjupiter
p4664
aVkillathon
p4665
aVwomens
p4666
aVjoylessness
p4667
aVcarts
p4668
aVtwosomes
p4669
aVbordello
p4670
aVmicrowave
p4671
aVshakespeare
p4672
aVskateboarder
p4673
aVfrivilous
p4674
aVslurry
p4675
aVcarte
p4676
aVpredicting
p4677
aVrepellant
p4678
aVdisappearances
p4679
aVconfrontation
p4680
aVbeasly
p4681
aVmissive
p4682
aVdigestible
p4683
aVinedible
p4684
aVbarbarians
p4685
aVmagazine
p4686
aVafternoon
p4687
aVbrinkley
p4688
aVautomatically
p4689
aVmanagers
p4690
aVelectrocuting
p4691
aVfaustian
p4692
aVmissus
p4693
aVfumes
p4694
aVslurs
p4695
aVtheorizing
p4696
aVnarration
p4697
aVrefined
p4698
aVmurderers
p4699
aVlomper
p4700
aVcommunists
p4701
aVdistributing
p4702
aVinternetters
p4703
aVinitial
p4704
aVjealousy
p4705
aVcorporeal
p4706
aVeditor
p4707
aVfraction
p4708
aVfactions
p4709
aVpredestination
p4710
aVstarve
p4711
aVclinics
p4712
aVbatman
p4713
aVanalyse
p4714
aVsickest
p4715
aVlanding
p4716
aVundress
p4717
aVfeminine
p4718
aVsagas
p4719
aVanalyst
p4720
aVprevents
p4721
aVwhisked
p4722
aVhytner
p4723
aVwhiskey
p4724
aVgould
p4725
aVeliott
p4726
aVwhisker
p4727
aVhorrifying
p4728
aVmidgets
p4729
aVstrengthening
p4730
aVspotlighted
p4731
aVmidgett
p4732
aVpetit
p4733
aVsaddles
p4734
aVgraff
p4735
aVlobotomizing
p4736
aVthunk
p4737
aVbogart
p4738
aVkeough
p4739
aVboingo
p4740
aVawhile
p4741
aVgraft
p4742
aVcourtesan
p4743
aVmarking
p4744
aVdussollier
p4745
aVtainsy
p4746
aVholly
p4747
aVtamala
p4748
aVtheatens
p4749
aVfaction
p4750
aVhandicap
p4751
aVparenthood
p4752
aVjourney
p4753
aVbrightens
p4754
aVsinead
p4755
aVplatoons
p4756
aVhoskins
p4757
aVquinlan
p4758
aVjackee
p4759
aVenhancers
p4760
aVhappening
p4761
aVshallowly
p4762
aVrestores
p4763
aVpseudo
p4764
aVjacket
p4765
aVstripping
p4766
aVheinrichs
p4767
aVmeander
p4768
aVprofits
p4769
aVdiscreetly
p4770
aVfletch
p4771
aVbreck
p4772
aVhijacker
p4773
aVcking
p4774
aVgutch
p4775
aVresurfaces
p4776
aVcommentaries
p4777
aVhijacked
p4778
aVanticipation
p4779
aVdisorders
p4780
aVswoon
p4781
aVfather
p4782
aVwhitfeld
p4783
aVreptiles
p4784
aVswoop
p4785
aVodgen
p4786
aVanalogous
p4787
aVadvises
p4788
aVadviser
p4789
aVbulleye
p4790
aVdepak
p4791
aVplotlessness
p4792
aVdefying
p4793
aVadvised
p4794
aVfecal
p4795
aVbiceps
p4796
aVslapstick
p4797
aVpallbearer
p4798
aVswapping
p4799
aVcheapest
p4800
aVproposals
p4801
aVdohlen
p4802
aVsuperstardom
p4803
aVturgid
p4804
aVarrrghhh
p4805
aVround
p4806
aValakina
p4807
aVtalked
p4808
aVdealing
p4809
aVashau
p4810
aVdorrance
p4811
aVforensics
p4812
aVsalability
p4813
aVtalker
p4814
aVravenous
p4815
aVtargets
p4816
aVmajors
p4817
aVnorris
p4818
aVfiller
p4819
aVencrusted
p4820
aVhealth
p4821
aVsuspect
p4822
aVtenacity
p4823
aVanticlimaxic
p4824
aVinternational
p4825
aVfilled
p4826
aVdwarf
p4827
aVperformaces
p4828
aVmeeks
p4829
aVfrosting
p4830
aVexemplified
p4831
aVmaguire
p4832
aVbratty
p4833
aVjungles
p4834
aVshooter
p4835
aVspheres
p4836
aVexemplifies
p4837
aVcarmel
p4838
aVkauffman
p4839
aVmargot
p4840
aVrecounting
p4841
aVinsolent
p4842
aVmerely
p4843
aVbolton
p4844
aVtransplant
p4845
aVsweating
p4846
aVaimlessly
p4847
aVinfinitum
p4848
aVariel
p4849
aVlieutenants
p4850
aVstoops
p4851
aVvisit
p4852
aVvineyard
p4853
aVterrarium
p4854
aVkhachaturian
p4855
aVhaliwell
p4856
aVliddle
p4857
aVdolphin
p4858
aVsleepwalks
p4859
aVlabyrinth
p4860
aVphasers
p4861
aVromanticizes
p4862
aVfictionalized
p4863
aVquoting
p4864
aVdrags
p4865
aVromanticized
p4866
aVflunky
p4867
aVkhondji
p4868
aVnearest
p4869
aVdisinvited
p4870
aVmacnicol
p4871
aVreynold
p4872
aVlowry
p4873
aVsample
p4874
aVpointedly
p4875
aVimpregnation
p4876
aVglamourous
p4877
aVdennis
p4878
aVsubconsciously
p4879
aVhinge
p4880
aVburgeoning
p4881
aVnonchalant
p4882
aVbenignly
p4883
aVlovestory
p4884
aVemotionless
p4885
aVprwhen
p4886
aVtrollop
p4887
aVirreverent
p4888
aVpersuasion
p4889
aVtesticle
p4890
aVdelaughter
p4891
aVmembership
p4892
aVmocks
p4893
aVjellyfish
p4894
aVwaist
p4895
aVoates
p4896
aVscolding
p4897
aVcristoffer
p4898
aVabuzz
p4899
aVbasket
p4900
aVfinchers
p4901
aVbungle
p4902
aVshoes
p4903
aVmudslides
p4904
aVjosephine
p4905
aVmoralist
p4906
aVfatalities
p4907
aVstrozzi
p4908
aVklutz
p4909
aVpeterson
p4910
aVblooded
p4911
aVsetbacks
p4912
aVstendahl
p4913
aVpolice
p4914
aVmonitor
p4915
aVherrier
p4916
aVinteresting
p4917
aVsupermasochist
p4918
aVdrummer
p4919
aVpolicy
p4920
aVtransparently
p4921
aVtucked
p4922
aVsoulful
p4923
aVtucker
p4924
aVlunch
p4925
aVmarkings
p4926
aVsnowdad
p4927
aVerudite
p4928
aVteller
p4929
aVworkload
p4930
aVfeverish
p4931
aVhuiessan
p4932
aVmahem
p4933
aVcareless
p4934
aVmaher
p4935
aVshowcasing
p4936
aVvogue
p4937
aVmotherland
p4938
aVbridging
p4939
aVenvigorating
p4940
aVsopranos
p4941
aVtreacherous
p4942
aVconventions
p4943
aVmanifesto
p4944
aVahmad
p4945
aVfingertips
p4946
aVworkweek
p4947
aVcarlisle
p4948
aVstitch
p4949
aVcatacombs
p4950
aVpentagon
p4951
aVpedophile
p4952
aVvaldez
p4953
aVzycie
p4954
aVdoonesbury
p4955
aVnominal
p4956
aVpamela
p4957
aVwainwright
p4958
aVbrimming
p4959
aVassurance
p4960
aVinaction
p4961
aVhallucinogen
p4962
aVromane
p4963
aVromano
p4964
aVafred
p4965
aVstanwyck
p4966
aVcarnival
p4967
aVwaiter
p4968
aVcontented
p4969
aVfunky
p4970
aVtamlyn
p4971
aVdissappears
p4972
aVassuredly
p4973
aVwaited
p4974
aVfirst
p4975
aVfleeing
p4976
aVpillsbury
p4977
aVrachel
p4978
aVnutritional
p4979
aVenthralled
p4980
aVspecificity
p4981
aVswitchblade
p4982
aVmoisture
p4983
aVspeaking
p4984
aVbantering
p4985
aVgaudy
p4986
aVmaximes
p4987
aVallegedly
p4988
aVkirkpatrick
p4989
aVpompano
p4990
aVdoddering
p4991
aVduval
p4992
aVbegrudgingly
p4993
aVsnoozer
p4994
aVstrolls
p4995
aVinferring
p4996
aVdeciphering
p4997
aVrousselot
p4998
aVultraconfident
p4999
aVtalia
p5000
a.